

HI-TECH Software LITE Macro Assembler (PIC18) V9.65 build 7190 
                                                       Sat Aug 02 14:17:50 2014

HI-TECH Software Omniscient Code Generator build 7190
     1  000000                     opt subtitle "HI-TECH Software Omniscient Code G
                                 enerator build 7190"
     2                           
     3                           	processor	18F4550
     4  000000                     porta	equ	0F80h
     5  000000                     portb	equ	0F81h
     6  000000                     portc	equ	0F82h
     7  000000                     portd	equ	0F83h
     8  000000                     porte	equ	0F84h
     9  000000                     lata	equ	0F89h
    10  000000                     latb	equ	0F8Ah
    11  000000                     latc	equ	0F8Bh
    12  000000                     latd	equ	0F8Ch
    13  000000                     late	equ	0F8Dh
    14  000000                     trisa	equ	0F92h
    15  000000                     trisb	equ	0F93h
    16  000000                     trisc	equ	0F94h
    17  000000                     trisd	equ	0F95h
    18  000000                     trise	equ	0F96h
    19  000000                     pie1	equ	0F9Dh
    20  000000                     pir1	equ	0F9Eh
    21  000000                     ipr1	equ	0F9Fh
    22  000000                     pie2	equ	0FA0h
    23  000000                     pir2	equ	0FA1h
    24  000000                     ipr2	equ	0FA2h
    25  000000                     t3con	equ	0FB1h
    26  000000                     tmr3l	equ	0FB2h
    27  000000                     tmr3h	equ	0FB3h
    28  000000                     ccp1con	equ	0FBDh
    29  000000                     ccpr1l	equ	0FBEh
    30  000000                     ccpr1h	equ	0FBFh
    31  000000                     adcon1	equ	0FC1h
    32  000000                     adcon0	equ	0FC2h
    33  000000                     adresl	equ	0FC3h
    34  000000                     adresh	equ	0FC4h
    35  000000                     sspcon2	equ	0FC5h
    36  000000                     sspcon1	equ	0FC6h
    37  000000                     sspstat	equ	0FC7h
    38  000000                     sspadd	equ	0FC8h
    39  000000                     sspbuf	equ	0FC9h
    40  000000                     t2con	equ	0FCAh
    41  000000                     pr2	equ	0FCBh
    42  000000                     tmr2	equ	0FCCh
    43  000000                     t1con	equ	0FCDh
    44  000000                     tmr1l	equ	0FCEh
    45  000000                     tmr1h	equ	0FCFh
    46  000000                     rcon	equ	0FD0h
    47  000000                     wdtcon	equ	0FD1h
    48  000000                     lvdcon	equ	0FD2h
    49  000000                     osccon	equ	0FD3h
    50  000000                     t0con	equ	0FD5h
    51  000000                     tmr0l	equ	0FD6h
    52  000000                     tmr0h	equ	0FD7h
    53  000000                     status	equ	0FD8h
    54  000000                     fsr2	equ	0FD9h
    55  000000                     fsr2l	equ	0FD9h
    56  000000                     fsr2h	equ	0FDAh
    57  000000                     plusw2	equ	0FDBh
    58  000000                     preinc2	equ	0FDCh
    59  000000                     postdec2	equ	0FDDh
    60  000000                     postinc2	equ	0FDEh
    61  000000                     indf2	equ	0FDFh
    62  000000                     bsr	equ	0FE0h
    63  000000                     fsr1	equ	0FE1h
    64  000000                     fsr1l	equ	0FE1h
    65  000000                     fsr1h	equ	0FE2h
    66  000000                     plusw1	equ	0FE3h
    67  000000                     preinc1	equ	0FE4h
    68  000000                     postdec1	equ	0FE5h
    69  000000                     postinc1	equ	0FE6h
    70  000000                     indf1	equ	0FE7h
    71  000000                     wreg	equ	0FE8h
    72  000000                     fsr0	equ	0FE9h
    73  000000                     fsr0l	equ	0FE9h
    74  000000                     fsr0h	equ	0FEAh
    75  000000                     plusw0	equ	0FEBh
    76  000000                     preinc0	equ	0FECh
    77  000000                     postdec0	equ	0FEDh
    78  000000                     postinc0	equ	0FEEh
    79  000000                     indf0	equ	0FEFh
    80  000000                     intcon3	equ	0FF0h
    81  000000                     intcon2	equ	0FF1h
    82  000000                     intcon	equ	0FF2h
    83  000000                     prod	equ	0FF3h
    84  000000                     prodl	equ	0FF3h
    85  000000                     prodh	equ	0FF4h
    86  000000                     tablat	equ	0FF5h
    87  000000                     tblptr	equ	0FF6h
    88  000000                     tblptrl	equ	0FF6h
    89  000000                     tblptrh	equ	0FF7h
    90  000000                     tblptru	equ	0FF8h
    91  000000                     pcl	equ	0FF9h
    92  000000                     pclat	equ	0FFAh
    93  000000                     pclath	equ	0FFAh
    94  000000                     pclatu	equ	0FFBh
    95  000000                     stkptr	equ	0FFCh
    96  000000                     tosl	equ	0FFDh
    97  000000                     tosh	equ	0FFEh
    98  000000                     tosu	equ	0FFFh
    99                           	global	__ramtop
   100                           	global	__accesstop
   101                           # 15 "X:\mplab\mini project\new untouched\USB Io
                                  board fimware source\main.c"
   102                           	global __config1 ;#
   103                           # 15 "X:\mplab\mini project\new untouched\USB Io
                                  board fimware source\main.c"
   104  000000                     	__config1 equ 0xFFDF & 0xFFFF & 0xFFFF & 0xF4FF
                                  & 0xFFFF & 0xFFFB ;#
   105                           # 17 "X:\mplab\mini project\new untouched\USB Io
                                  board fimware source\main.c"
   106                           	global __config2 ;#
   107                           # 17 "X:\mplab\mini project\new untouched\USB Io
                                  board fimware source\main.c"
   108  000000                     	__config2 equ 0xFFDF & 0xFFFF & 0xFFFF & 0xFFFF
                                  & 0xFEFF & 0xFFFF ;#
   109                           # 19 "X:\mplab\mini project\new untouched\USB Io
                                  board fimware source\main.c"
   110                           	global __config3 ;#
   111                           # 19 "X:\mplab\mini project\new untouched\USB Io
                                  board fimware source\main.c"
   112  000000                     	__config3 equ 0xFDFF & 0xFFFF & 0xFFFF ;#
   113                           # 21 "X:\mplab\mini project\new untouched\USB Io
                                  board fimware source\main.c"
   114                           	global __config4 ;#
   115                           # 21 "X:\mplab\mini project\new untouched\USB Io
                                  board fimware source\main.c"
   116  000000                     	__config4 equ 0xFFFF & 0xFFFF & 0xFFFB & 0xFFFF
                                  & 0xFFFF ;#
   117                           # 23 "X:\mplab\mini project\new untouched\USB Io
                                  board fimware source\main.c"
   118                           	global __config5 ;#
   119                           # 23 "X:\mplab\mini project\new untouched\USB Io
                                  board fimware source\main.c"
   120  000000                     	__config5 equ 0xFFFF ;#
   121                           # 24 "X:\mplab\mini project\new untouched\USB Io
                                  board fimware source\main.c"
   122                           	global __config6 ;#
   123                           # 24 "X:\mplab\mini project\new untouched\USB Io
                                  board fimware source\main.c"
   124  000000                     	__config6 equ 0xFFFF ;#
   125                           # 25 "X:\mplab\mini project\new untouched\USB Io
                                  board fimware source\main.c"
   126                           	global __config7 ;#
   127                           # 25 "X:\mplab\mini project\new untouched\USB Io
                                  board fimware source\main.c"
   128  000000                     	__config7 equ 0xFFFF ;#
   129                           	GLOBAL	__activetblptr
   130  000000                     __activetblptr	EQU	2
   131                           	GLOBAL	__smallconst,__Lsmallconst
   132  000000                     __smallconst	EQU	__Lsmallconst
   133                           	GLOBAL	__mediumconst,__Lmediumconst
   134  000000                     __mediumconst	EQU	__Lmediumconst
   135                           	GLOBAL	__Ldata
   136  000000                     __Ldata	EQU	50
   137  000000                     USBDeviceTasks@i	equ	??_USBDeviceTasks+0
   138                           	global	USBDeviceTasks@i
   139  000000                     _ProcessIO$1560	equ	??_ProcessIO+0
   140                           	global	_ProcessIO$1560
   141  000000                     USBCtrlEPService@setup_cnt	equ	??_USBCtrlEPServi
                                 ce+0
   142                           	global	USBCtrlEPService@setup_cnt
   143  000000                     USBDeviceInit@i	equ	??_USBDeviceInit+0
   144                           	global	USBDeviceInit@i
   145  000000                     USBCtrlTrfInHandler@lastDTS	equ	??_USBCtrlTrfInH
                                 andler+0
   146                           	global	USBCtrlTrfInHandler@lastDTS
   147  000000                     USBPrepareForNextSetupTrf@p	equ	??_USBPrepareFor
                                 NextSetupTrf+0
   148                           	global	USBPrepareForNextSetupTrf@p
   149  000000                     USBCtrlTrfRxService@byteToRead	equ	??_USBCtrlTrf
                                 RxService+0
   150                           	global	USBCtrlTrfRxService@byteToRead
   151  000000                     USBCtrlTrfRxService@i	equ	??_USBCtrlTrfRxService
                                 +1
   152                           	global	USBCtrlTrfRxService@i
   153  000000                     USBStdFeatureReqHandler@pUEP	equ	??_USBStdFeatur
                                 eReqHandler+0
   154                           	global	USBStdFeatureReqHandler@pUEP
   155  000000                     USBStdFeatureReqHandler@p	equ	??_USBStdFeatureRe
                                 qHandler+2
   156                           	global	USBStdFeatureReqHandler@p
   157  000000                     USBCtrlTrfTxService@byteToSend	equ	??_USBCtrlTrf
                                 TxService+0
   158                           	global	USBCtrlTrfTxService@byteToSend
   159  000000                     USBStdGetStatusHandler@p	equ	??_USBStdGetStatusH
                                 andler+0
   160                           	global	USBStdGetStatusHandler@p
   161  000000                     memset@p	equ	??_memset+0
   162                           	global	memset@p
   163  000000                     memset@p1	equ	?_memset+0
   164                           	global	memset@p1
   165  000000                     memset@c	equ	?_memset+2
   166                           	global	memset@c
   167  000000                     memset@n	equ	?_memset+4
   168                           	global	memset@n
   169  000000                     USER_USB_CALLBACK_EVENT_HANDLER@event	equ	?_USER
                                 _USB_CALLBACK_EVENT_HANDLER+0
   170                           	global	USER_USB_CALLBACK_EVENT_HANDLER@event
   171  000000                     USER_USB_CALLBACK_EVENT_HANDLER@pdata	equ	?_USER
                                 _USB_CALLBACK_EVENT_HANDLER+2
   172                           	global	USER_USB_CALLBACK_EVENT_HANDLER@pdata
   173  000000                     USER_USB_CALLBACK_EVENT_HANDLER@size	equ	?_USER_
                                 USB_CALLBACK_EVENT_HANDLER+4
   174                           	global	USER_USB_CALLBACK_EVENT_HANDLER@size
   175  000000                     USBEnableEndpoint@p	equ	??_USBEnableEndpoint+0
   176                           	global	USBEnableEndpoint@p
   177  000000                     USBEnableEndpoint@ep	equ	?_USBEnableEndpoint+0
   178                           	global	USBEnableEndpoint@ep
   179  000000                     USBEnableEndpoint@options	equ	?_USBEnableEndpoin
                                 t+1
   180                           	global	USBEnableEndpoint@options
   181  000000                     USBTransferOnePacket@handle	equ	??_USBTransferOn
                                 ePacket+0
   182                           	global	USBTransferOnePacket@handle
   183  000000                     USBTransferOnePacket@ep	equ	?_USBTransferOnePack
                                 et+0
   184                           	global	USBTransferOnePacket@ep
   185  000000                     USBTransferOnePacket@dir	equ	?_USBTransferOnePac
                                 ket+1
   186                           	global	USBTransferOnePacket@dir
   187  000000                     USBTransferOnePacket@data	equ	?_USBTransferOnePa
                                 cket+2
   188                           	global	USBTransferOnePacket@data
   189  000000                     USBTransferOnePacket@len	equ	?_USBTransferOnePac
                                 ket+4
   190                           	global	USBTransferOnePacket@len
   191  000000                     USBConfigureEndpoint@workaround	equ	??_USBConfig
                                 ureEndpoint+0
   192                           	global	USBConfigureEndpoint@workaround
   193  000000                     USBConfigureEndpoint@handle	equ	??_USBConfigureE
                                 ndpoint+1
   194                           	global	USBConfigureEndpoint@handle
   195  000000                     USBConfigureEndpoint@EPNum	equ	?_USBConfigureEnd
                                 point+0
   196                           	global	USBConfigureEndpoint@EPNum
   197  000000                     USBConfigureEndpoint@direction	equ	?_USBConfigur
                                 eEndpoint+1
   198                           	global	USBConfigureEndpoint@direction
   199  000000                     ___lwdiv@counter	equ	??___lwdiv+0
   200                           	global	___lwdiv@counter
   201  000000                     ___lwdiv@quotient	equ	??___lwdiv+1
   202                           	global	___lwdiv@quotient
   203  000000                     ___lwdiv@dividend	equ	?___lwdiv+0
   204                           	global	___lwdiv@dividend
   205  000000                     ___lwdiv@divisor	equ	?___lwdiv+2
   206                           	global	___lwdiv@divisor
   207  000000                     _ISR$1561	equ	??_ISR+0
   208                           	global	_ISR$1561
   209  000000                     i2USBTransferOnePacket@handle	equ	??i2_USBTransf
                                 erOnePacket+0
   210                           	global	i2USBTransferOnePacket@handle
   211  000000                     i2USBTransferOnePacket@ep	equ	?i2_USBTransferOne
                                 Packet+0
   212                           	global	i2USBTransferOnePacket@ep
   213  000000                     i2USBTransferOnePacket@dir	equ	?i2_USBTransferOn
                                 ePacket+1
   214                           	global	i2USBTransferOnePacket@dir
   215  000000                     i2USBTransferOnePacket@data	equ	?i2_USBTransferO
                                 nePacket+2
   216                           	global	i2USBTransferOnePacket@data
   217  000000                     i2USBTransferOnePacket@len	equ	?i2_USBTransferOn
                                 ePacket+4
   218                           	global	i2USBTransferOnePacket@len
   219                           ;Data sizes: Strings 0, constant 194, data 1, bs
                                 s 0, persistent 0 stack 66
   220                           	global	_main
   221                           	global	??_main
   222                           	global	?_main
   223                           
   224                           ; *************** function _main ***************
                                 **
   225                           ; Defined at:
   226                           ;		line 32 in file "X:\mplab\mini project\new un
                                 touched\USB Io board fimware source\main.c"
   227                           ; Parameters:
   228                           ;		None
   229                           ; Auto variables:
   230                           ;		None
   231                           ; Return value:
   232                           ;		type: void 
   233                           ;		size: 0
   234                           ; Registers used:
   235                           ;		wreg, fsr0l, fsr0h, fsr1l, fsr1h, status,2, s
                                 tatus,0, pclat, tosl, tblptrl, tblptrh, tblptru,
                                  tablat, prodl, prodh, cstack
   236                           ; Tracked objects:
   237                           ;		On entry : 0/0
   238                           ;		On exit  : 0/0
   239                           ;		Unchanged: 0/0
   240                           ; Data sizes:
   241                           ;		Autos:    0
   242                           ;		Params:   0
   243                           ;		Temp:     0
   244                           ;		Total:    0
   245                           ; This function calls:
   246                           ;		_InitialiseSystem
   247                           ;		_USBDeviceTasks
   248                           ;		_ProcessIO
   249                           ; This function is called by:
   250                           ;		Startup code after reset
   251                           ; This function uses a non-reentrant model
   252                           ; 
   253                                   psect   text0,class=CODE,space=0,reloc=2
   254                           
   255                           	opt lm
   256                           	file	"X:\mplab\mini project\new untouched\USB I
                                 o board fimware source\main.c"
   257                           	line	32
   258  000000                     	__size_of_main	equ	__end_of_main-_main
   259                                   psect   text0
   260                           ;main.c: 15: asm("\tglobal __config" "1"); asm("
                                 \t__config" "1" " equ " "0xFFDF & 0xFFFF & 0xFFF
                                 F & 0xF4FF & 0xFFFF & 0xFFFB");
   261                           ;main.c: 17: asm("\tglobal __config" "2"); asm("
                                 \t__config" "2" " equ " "0xFFDF & 0xFFFF & 0xFFF
                                 F & 0xFFFF & 0xFEFF & 0xFFFF");
   262                           ;main.c: 19: asm("\tglobal __config" "3"); asm("
                                 \t__config" "3" " equ " "0xFDFF & 0xFFFF & 0xFFF
                                 F");
   263                           ;main.c: 21: asm("\tglobal __config" "4"); asm("
                                 \t__config" "4" " equ " "0xFFFF & 0xFFFF & 0xFFF
                                 B & 0xFFFF & 0xFFFF");
   264                           ;main.c: 23: asm("\tglobal __config" "5"); asm("
                                 \t__config" "5" " equ " "0xFFFF");
   265                           	
   266  002266                     _main:		; BSR set to: ?
   267                           
   268                           	opt stack 29
   269                           	line	33
   270                           ;main.c: 33: InitialiseSystem();
   271  002266  ECB5  F00F         	call	_InitialiseSystem	;wreg free
   272                           	line	34
   273                           ;main.c: 34: while(1)
   274                           	
   275  00226A                     l249:		; BSR set to: ?
   276                           
   277                           	line	37
   278                           ;main.c: 35: {
   279                           ;main.c: 37: USBDeviceTasks();
   280  00226A  EC63  F002         	call	_USBDeviceTasks	;wreg free
   281                           	line	39
   282                           ;main.c: 39: ProcessIO();
   283  00226E  EC2E  F00C         	call	_ProcessIO	;wreg free
   284                           	line	40
   285                           	
   286  002272                     l248:		; BSR set to: ?
   287                           
   288                           	line	34
   289  002272  EF35  F011         	goto	l249
   290                           	global	start
   291  002276  EF0C  F000         	goto	start
   292                           	opt stack 0
   293                           GLOBAL __end_of_main
   294  00227A                     	__end_of_main:
   295                           	FNSIZE	_main,0,0
   296                           ; =============== function _main ends ==========
                                 ==
   297                           
   298                                   psect   text1,class=CODE,space=0,reloc=2
   299                           	line	41
   300                           
   301                           	opt lm
   302                           	signat	_main,88
   303                           	global	_USBDeviceTasks
   304                           	global	??_USBDeviceTasks
   305                           	global	?_USBDeviceTasks
   306                           
   307                           ; *************** function _USBDeviceTasks *****
                                 ************
   308                           ; Defined at:
   309                           ;		line 779 in file "X:\mplab\mini project\new u
                                 ntouched\USB Io board fimware source\usb_device.
                                 c"
   310                           ; Parameters:
   311                           ;		None
   312                           ; Auto variables:
   313                           ;		i           	       	type: unsigned char 
   314                           ; Return value:
   315                           ;		type: void 
   316                           ;		size: 0
   317                           ; Registers used:
   318                           ;		wreg, fsr0l, fsr0h, fsr1l, fsr1h, status,2, s
                                 tatus,0, pclat, tosl, tblptrl, tblptrh, tblptru,
                                  tablat, prodl, prodh, cstack
   319                           ; Tracked objects:
   320                           ;		On entry : 0/0
   321                           ;		On exit  : 0/0
   322                           ;		Unchanged: 0/0
   323                           ; Data sizes:
   324                           ;		Autos:    1
   325                           ;		Params:   0
   326                           ;		Temp:     1
   327                           ;		Total:    2
   328                           ; This function calls:
   329                           ;		_USBWakeFromSuspend
   330                           ;		_USBDeviceInit
   331                           ;		_USBSuspend
   332                           ;		_USER_USB_CALLBACK_EVENT_HANDLER
   333                           ;		_USBStallHandler
   334                           ;		_USBCtrlEPService
   335                           ; This function is called by:
   336                           ;		_main
   337                           ; This function uses a non-reentrant model
   338                           ; 
   339                           	file	"X:\mplab\mini project\new untouched\USB I
                                 o board fimware source\usb_device.c"
   340                           	line	779
   341  000000                     	__size_of_USBDeviceTasks	equ	__end_of_USBDevice
                                 Tasks-_USBDeviceTasks
   342                           ;usb_device.c: 777: void USBDeviceTasks(void)
   343                           ;usb_device.c: 779: {
   344                           	
   345  0004C6                     _USBDeviceTasks:		; BSR set to: ?
   346                           
   347                           	opt stack 28
   348                           	line	806
   349                           ;usb_device.c: 780: BYTE i;
   350                           ;usb_device.c: 806: if (1 != 1)
   351  0004C6  EF65  F002         	goto	l518
   352                           	line	845
   353                           	
   354  0004CA                     l518:		; BSR set to: ?
   355                           
   356                           	line	867
   357                           ;usb_device.c: 845: }
   358                           ;usb_device.c: 867: if(USBDeviceState == DETACHE
                                 D_STATE)
   359  0004CA  661D               	tstfsz	((c:29)),c
   360  0004CC  EF6A  F002         	goto	u2891
   361  0004D0  EF6C  F002         	goto	u2890
   362  0004D4                     u2891:
   363  0004D4  EF96  F002         	goto	l519
   364  0004D8                     u2890:
   365                           	line	870
   366                           ;usb_device.c: 868: {
   367                           ;usb_device.c: 870: UCON = 0;
   368  0004D8  0E00               	movlw	low(0)
   369  0004DA  6E6D               	movwf	((c:3949)),c	;volatile
   370                           	line	873
   371                           ;usb_device.c: 873: UIE = 0;
   372  0004DC  0101               	movlb	1	; () banked
   373  0004DE  6F01               	movwf	(??_USBDeviceTasks+1+0)&0ffh
   374  0004E0  0E00               	movlw	low(0)
   375  0004E2  6E69               	movwf	((c:3945)),c
   376  0004E4  0101               	movlb	1	; () banked
   377  0004E6  5101               	movf	(??_USBDeviceTasks+1+0)&0ffh,w
   378                           	line	877
   379                           ;usb_device.c: 877: { UCFG = 0x10 | 0x00 | 0x04 
                                 | 0x02; UEIE = 0x9F; UIE = 0x39 | 0x40 | 0x02; }
                                 ;
   380  0004E8  0101               	movlb	1	; () banked
   381  0004EA  6F01               	movwf	(??_USBDeviceTasks+1+0)&0ffh
   382  0004EC  0E16               	movlw	low(016h)
   383  0004EE  6E6F               	movwf	((c:3951)),c
   384  0004F0  0101               	movlb	1	; () banked
   385  0004F2  5101               	movf	(??_USBDeviceTasks+1+0)&0ffh,w
   386  0004F4  0101               	movlb	1	; () banked
   387  0004F6  6F01               	movwf	(??_USBDeviceTasks+1+0)&0ffh
   388  0004F8  0E9F               	movlw	low(09Fh)
   389  0004FA  6E6B               	movwf	((c:3947)),c
   390  0004FC  0101               	movlb	1	; () banked
   391  0004FE  5101               	movf	(??_USBDeviceTasks+1+0)&0ffh,w
   392  000500  0101               	movlb	1	; () banked
   393  000502  6F01               	movwf	(??_USBDeviceTasks+1+0)&0ffh
   394  000504  0E7B               	movlw	low(07Bh)
   395  000506  6E69               	movwf	((c:3945)),c
   396  000508  0101               	movlb	1	; () banked
   397  00050A  5101               	movf	(??_USBDeviceTasks+1+0)&0ffh,w
   398                           	line	880
   399                           ;usb_device.c: 880: while(!UCONbits.USBEN){UCONb
                                 its.USBEN = 1;}
   400  00050C  EF89  F002         	goto	l520
   401                           	
   402  000510                     l521:		; BSR set to: ?
   403                           
   404  000510  866D               	bsf	((c:3949)),c,3	;volatile
   405                           	
   406  000512                     l520:		; BSR set to: ?
   407                           
   408                           	
   409  000512  A66D               	btfss	((c:3949)),c,3	;volatile
   410  000514  EF8E  F002         	goto	u2901
   411  000518  EF90  F002         	goto	u2900
   412  00051C                     u2901:
   413  00051C  EF88  F002         	goto	l521
   414  000520                     u2900:
   415                           	
   416  000520                     l522:		; BSR set to: ?
   417                           
   418                           	line	883
   419                           ;usb_device.c: 883: USBDeviceState = ATTACHED_ST
                                 ATE;
   420  000520  0101               	movlb	1	; () banked
   421  000522  6F01               	movwf	(??_USBDeviceTasks+1+0)&0ffh
   422  000524  0E01               	movlw	low(01h)
   423  000526  6E1D               	movwf	((c:29)),c
   424  000528  0101               	movlb	1	; () banked
   425  00052A  5101               	movf	(??_USBDeviceTasks+1+0)&0ffh,w
   426                           	line	888
   427                           	
   428  00052C                     l519:		; BSR set to: ?
   429                           
   430                           	line	891
   431                           ;usb_device.c: 888: }
   432                           ;usb_device.c: 891: if(USBDeviceState == ATTACHE
                                 D_STATE)
   433  00052C  041D               	decf	((c:29)),c,w
   434                           
   435  00052E  A4D8               	btfss	status,2
   436  000530  EF9C  F002         	goto	u2911
   437  000534  EF9E  F002         	goto	u2910
   438  000538                     u2911:
   439  000538  EFB5  F002         	goto	l523
   440  00053C                     u2910:
   441                           	line	902
   442                           ;usb_device.c: 892: {
   443                           ;usb_device.c: 902: if(!SE0)
   444  00053C  BA6D               	btfsc	c:(31597/8),(31597)&7	;volatile
   445  00053E  EFA3  F002         	goto	u2921
   446  000542  EFA5  F002         	goto	u2920
   447  000546                     u2921:
   448  000546  EFB5  F002         	goto	l523
   449  00054A                     u2920:
   450                           	line	904
   451                           ;usb_device.c: 903: {
   452                           ;usb_device.c: 904: UIR = 0;;
   453  00054A  0E00               	movlw	low(0)
   454  00054C  6E68               	movwf	((c:3944)),c	;volatile
   455                           	line	906
   456                           ;usb_device.c: 906: UIE=0;
   457  00054E  0101               	movlb	1	; () banked
   458  000550  6F01               	movwf	(??_USBDeviceTasks+1+0)&0ffh
   459  000552  0E00               	movlw	low(0)
   460  000554  6E69               	movwf	((c:3945)),c
   461  000556  0101               	movlb	1	; () banked
   462  000558  5101               	movf	(??_USBDeviceTasks+1+0)&0ffh,w
   463                           	line	908
   464                           ;usb_device.c: 908: UIEbits.URSTIE = 1;
   465  00055A  8069               	bsf	((c:3945)),c,0	;volatile
   466                           	line	909
   467                           ;usb_device.c: 909: UIEbits.IDLEIE = 1;
   468  00055C  8869               	bsf	((c:3945)),c,4	;volatile
   469                           	line	910
   470                           ;usb_device.c: 910: USBDeviceState = POWERED_STA
                                 TE;
   471  00055E  0101               	movlb	1	; () banked
   472  000560  6F01               	movwf	(??_USBDeviceTasks+1+0)&0ffh
   473  000562  0E02               	movlw	low(02h)
   474  000564  6E1D               	movwf	((c:29)),c
   475  000566  0101               	movlb	1	; () banked
   476  000568  5101               	movf	(??_USBDeviceTasks+1+0)&0ffh,w
   477                           	line	911
   478                           	
   479  00056A                     l524:		; BSR set to: ?
   480                           
   481                           	line	912
   482                           	
   483  00056A                     l523:		; BSR set to: ?
   484                           
   485                           	line	928
   486                           ;usb_device.c: 911: }
   487                           ;usb_device.c: 912: }
   488                           ;usb_device.c: 928: if(UIRbits.ACTVIF && UIEbits
                                 .ACTVIE)
   489                           	
   490  00056A  A468               	btfss	((c:3944)),c,2	;volatile
   491  00056C  EFBA  F002         	goto	u2931
   492  000570  EFBC  F002         	goto	u2930
   493  000574                     u2931:
   494  000574  EFC6  F002         	goto	l525
   495  000578                     u2930:
   496                           	
   497  000578  A469               	btfss	((c:3945)),c,2	;volatile
   498  00057A  EFC1  F002         	goto	u2941
   499  00057E  EFC3  F002         	goto	u2940
   500  000582                     u2941:
   501  000582  EFC6  F002         	goto	l525
   502  000586                     u2940:
   503                           	line	930
   504                           ;usb_device.c: 929: {
   505                           ;usb_device.c: 930: (UIR &= 0xFB);
   506  000586  9468               	bcf	(0+(2/8)+(c:3944)),c,(2)&7	;volatile
   507                           	line	934
   508                           ;usb_device.c: 934: USBWakeFromSuspend();
   509  000588  ECF4  F010         	call	_USBWakeFromSuspend	;wreg free
   510                           	line	936
   511                           	
   512  00058C                     l525:		; BSR set to: ?
   513                           
   514                           	line	941
   515                           ;usb_device.c: 936: }
   516                           ;usb_device.c: 941: if(SUSPND==1)
   517  00058C  A26D               	btfss	c:(31593/8),(31593)&7
   518  00058E  EFCB  F002         	goto	u2951
   519  000592  EFCD  F002         	goto	u2950
   520  000596                     u2951:
   521  000596  EFD0  F002         	goto	l526
   522  00059A                     u2950:
   523                           	line	943
   524                           ;usb_device.c: 942: {
   525                           ;usb_device.c: 943: PIR2bits.USBIF = 0;;
   526  00059A  9AA1               	bcf	((c:4001)),c,5	;volatile
   527                           	line	944
   528                           ;usb_device.c: 944: return;
   529  00059C  EFD0  F003         	goto	l517
   530                           	line	945
   531                           	
   532  0005A0                     l526:		; BSR set to: ?
   533                           
   534                           	line	957
   535                           ;usb_device.c: 945: }
   536                           ;usb_device.c: 957: if(UIRbits.URSTIF && UIEbits
                                 .URSTIE)
   537                           	
   538  0005A0  A068               	btfss	((c:3944)),c,0	;volatile
   539  0005A2  EFD5  F002         	goto	u2961
   540  0005A6  EFD7  F002         	goto	u2960
   541  0005AA                     u2961:
   542  0005AA  EFFC  F002         	goto	l527
   543  0005AE                     u2960:
   544                           	
   545  0005AE  A069               	btfss	((c:3945)),c,0	;volatile
   546  0005B0  EFDC  F002         	goto	u2971
   547  0005B4  EFDE  F002         	goto	u2970
   548  0005B8                     u2971:
   549  0005B8  EFFC  F002         	goto	l527
   550  0005BC                     u2970:
   551                           	line	959
   552                           ;usb_device.c: 958: {
   553                           ;usb_device.c: 959: USBDeviceInit();
   554  0005BC  EC6A  F009         	call	_USBDeviceInit	;wreg free
   555                           	line	960
   556                           ;usb_device.c: 960: USBDeviceState = DEFAULT_STA
                                 TE;
   557  0005C0  0101               	movlb	1	; () banked
   558  0005C2  6F01               	movwf	(??_USBDeviceTasks+1+0)&0ffh
   559  0005C4  0E04               	movlw	low(04h)
   560  0005C6  6E1D               	movwf	((c:29)),c
   561  0005C8  0101               	movlb	1	; () banked
   562  0005CA  5101               	movf	(??_USBDeviceTasks+1+0)&0ffh,w
   563                           	line	972
   564                           ;usb_device.c: 972: BDT[0].ADR = (BYTE*)&SetupPk
                                 t;
   565  0005CC  0105               	movlb	5	; () banked
   566  0005CE  0E00               	movlw	low(1280)	;volatile
   567  0005D0  0104               	movlb	4	; () banked
   568  0005D2  0104               	movlb	4	; () banked
   569  0005D4  6F02               	movwf	(0+(1024+02h))&0ffh	;volatile
   570  0005D6  0105               	movlb	5	; () banked
   571  0005D8  0E05               	movlw	high(1280)	;volatile
   572  0005DA  0104               	movlb	4	; () banked
   573  0005DC  6F03               	movwf	(1+(1024+02h))&0ffh	;volatile
   574                           	line	973
   575                           ;usb_device.c: 973: BDT[0].CNT = 8;
   576  0005DE  0E08               	movlw	low(08h)
   577  0005E0  0104               	movlb	4	; () banked
   578  0005E2  0104               	movlb	4	; () banked
   579  0005E4  6F01               	movwf	(0+(1024+01h))&0ffh	;volatile
   580                           	line	974
   581                           ;usb_device.c: 974: BDT[0].STAT.Val &= ~0xFF;
   582  0005E6  0E00               	movlw	low(0)
   583  0005E8  0104               	movlb	4	; () banked
   584  0005EA  0104               	movlb	4	; () banked
   585  0005EC  6F00               	movwf	((1024))&0ffh	;volatile
   586                           	line	975
   587                           ;usb_device.c: 975: BDT[0].STAT.Val |= 0x80|0x00
                                 |0x08|0x04;
   588  0005EE  0E8C               	movlw	(08Ch)&0ffh
   589  0005F0  0104               	movlb	4	; () banked
   590  0005F2  0104               	movlb	4	; () banked
   591  0005F4  1300               	iorwf	((1024))&0ffh	;volatile
   592                           	line	985
   593                           ;usb_device.c: 985: (UIR &= 0xFE);
   594  0005F6  9068               	bcf	(0+(0/8)+(c:3944)),c,(0)&7	;volatile
   595                           	line	986
   596                           	
   597  0005F8                     l527:		; BSR set to: ?
   598                           
   599                           	line	991
   600                           ;usb_device.c: 986: }
   601                           ;usb_device.c: 991: if(UIRbits.IDLEIF && UIEbits
                                 .IDLEIE)
   602                           	
   603  0005F8  A868               	btfss	((c:3944)),c,4	;volatile
   604  0005FA  EF01  F003         	goto	u2981
   605  0005FE  EF03  F003         	goto	u2980
   606  000602                     u2981:
   607  000602  EF0D  F003         	goto	l528
   608  000606                     u2980:
   609                           	
   610  000606  A869               	btfss	((c:3945)),c,4	;volatile
   611  000608  EF08  F003         	goto	u2991
   612  00060C  EF0A  F003         	goto	u2990
   613  000610                     u2991:
   614  000610  EF0D  F003         	goto	l528
   615  000614                     u2990:
   616                           	line	997
   617                           ;usb_device.c: 992: {
   618                           ;usb_device.c: 997: USBSuspend();
   619  000614  EC18  F011         	call	_USBSuspend	;wreg free
   620                           	line	1000
   621                           ;usb_device.c: 1000: (UIR &= 0xEF);
   622  000618  9868               	bcf	(0+(4/8)+(c:3944)),c,(4)&7	;volatile
   623                           	line	1001
   624                           	
   625  00061A                     l528:		; BSR set to: ?
   626                           
   627                           	line	1003
   628                           ;usb_device.c: 1001: }
   629                           ;usb_device.c: 1003: if(UIRbits.SOFIF && UIEbits
                                 .SOFIE)
   630                           	
   631  00061A  AC68               	btfss	((c:3944)),c,6	;volatile
   632  00061C  EF12  F003         	goto	u3001
   633  000620  EF14  F003         	goto	u3000
   634  000624                     u3001:
   635  000624  EF33  F003         	goto	l529
   636  000628                     u3000:
   637                           	
   638  000628  AC69               	btfss	((c:3945)),c,6	;volatile
   639  00062A  EF19  F003         	goto	u3011
   640  00062E  EF1B  F003         	goto	u3010
   641  000632                     u3011:
   642  000632  EF33  F003         	goto	l529
   643  000636                     u3010:
   644                           	line	1005
   645                           ;usb_device.c: 1004: {
   646                           ;usb_device.c: 1005: USER_USB_CALLBACK_EVENT_HAN
                                 DLER(EVENT_SOF,0,1);
   647  000636  0E01               	movlw	low(01h)
   648  000638  0101               	movlb	1	; () banked
   649  00063A  0101               	movlb	1	; () banked
   650  00063C  6F0C               	movwf	(0+(?_USER_USB_CALLBACK_EVENT_HANDLER+04h
                                 ))&0ffh
   651  00063E  0E00               	movlw	high(01h)
   652  000640  0101               	movlb	1	; () banked
   653  000642  6F0D               	movwf	(1+(?_USER_USB_CALLBACK_EVENT_HANDLER+04h
                                 ))&0ffh
   654  000644  0E00               	movlw	low(0)
   655  000646  0101               	movlb	1	; () banked
   656  000648  0101               	movlb	1	; () banked
   657  00064A  6F0A               	movwf	(0+(?_USER_USB_CALLBACK_EVENT_HANDLER+02h
                                 ))&0ffh
   658  00064C  0E00               	movlw	high(0)
   659  00064E  0101               	movlb	1	; () banked
   660  000650  6F0B               	movwf	(1+(?_USER_USB_CALLBACK_EVENT_HANDLER+02h
                                 ))&0ffh
   661  000652  0E73               	movlw	low(073h)
   662  000654  0101               	movlb	1	; () banked
   663  000656  0101               	movlb	1	; () banked
   664  000658  6F08               	movwf	((?_USER_USB_CALLBACK_EVENT_HANDLER))&0ff
                                 h
   665  00065A  0E00               	movlw	high(073h)
   666  00065C  0101               	movlb	1	; () banked
   667  00065E  6F09               	movwf	((?_USER_USB_CALLBACK_EVENT_HANDLER+1))&0
                                 ffh
   668  000660  ECDC  F00E         	call	_USER_USB_CALLBACK_EVENT_HANDLER	;wreg fre
                                 e
   669                           	line	1006
   670                           ;usb_device.c: 1006: (UIR &= 0xBF);
   671  000664  9C68               	bcf	(0+(6/8)+(c:3944)),c,(6)&7	;volatile
   672                           	line	1007
   673                           	
   674  000666                     l529:		; BSR set to: ?
   675                           
   676                           	line	1009
   677                           ;usb_device.c: 1007: }
   678                           ;usb_device.c: 1009: if(UIRbits.STALLIF && UIEbi
                                 ts.STALLIE)
   679                           	
   680  000666  AA68               	btfss	((c:3944)),c,5	;volatile
   681  000668  EF38  F003         	goto	u3021
   682  00066C  EF3A  F003         	goto	u3020
   683  000670                     u3021:
   684  000670  EF43  F003         	goto	l530
   685  000674                     u3020:
   686                           	
   687  000674  AA69               	btfss	((c:3945)),c,5	;volatile
   688+ 000676  EF3F  F003         	goto	u3031
   689+ 00067A  EF41  F003         	goto	u3030
   690  00067E                     u3031:
   691  00067E  EF43  F003         	goto	l530
   692  000682                     u3030:
   693                           	line	1011
   694                           ;usb_device.c: 1010: {
   695                           ;usb_device.c: 1011: USBStallHandler();
   696  000682  ECA8  F010         	call	_USBStallHandler	;wreg free
   697                           	line	1012
   698                           	
   699  000686                     l530:		; BSR set to: ?
   700                           
   701                           	line	1014
   702                           ;usb_device.c: 1012: }
   703                           ;usb_device.c: 1014: if(UIRbits.UERRIF && UIEbit
                                 s.UERRIE)
   704                           	
   705  000686  A268               	btfss	((c:3944)),c,1	;volatile
   706  000688  EF48  F003         	goto	u3041
   707  00068C  EF4A  F003         	goto	u3040
   708  000690                     u3041:
   709  000690  EF6A  F003         	goto	l531
   710  000694                     u3040:
   711                           	
   712  000694  A269               	btfss	((c:3945)),c,1	;volatile
   713  000696  EF4F  F003         	goto	u3051
   714  00069A  EF51  F003         	goto	u3050
   715  00069E                     u3051:
   716  00069E  EF6A  F003         	goto	l531
   717  0006A2                     u3050:
   718                           	line	1016
   719                           ;usb_device.c: 1015: {
   720                           ;usb_device.c: 1016: USER_USB_CALLBACK_EVENT_HAN
                                 DLER(EVENT_BUS_ERROR,0,1);
   721  0006A2  0E01               	movlw	low(01h)
   722  0006A4  0101               	movlb	1	; () banked
   723  0006A6  0101               	movlb	1	; () banked
   724  0006A8  6F0C               	movwf	(0+(?_USER_USB_CALLBACK_EVENT_HANDLER+04h
                                 ))&0ffh
   725  0006AA  0E00               	movlw	high(01h)
   726  0006AC  0101               	movlb	1	; () banked
   727  0006AE  6F0D               	movwf	(1+(?_USER_USB_CALLBACK_EVENT_HANDLER+04h
                                 ))&0ffh
   728  0006B0  0E00               	movlw	low(0)
   729  0006B2  0101               	movlb	1	; () banked
   730  0006B4  0101               	movlb	1	; () banked
   731  0006B6  6F0A               	movwf	(0+(?_USER_USB_CALLBACK_EVENT_HANDLER+02h
                                 ))&0ffh
   732  0006B8  0E00               	movlw	high(0)
   733  0006BA  0101               	movlb	1	; () banked
   734  0006BC  6F0B               	movwf	(1+(?_USER_USB_CALLBACK_EVENT_HANDLER+02h
                                 ))&0ffh
   735  0006BE  0EFF               	movlw	low(07FFFh)
   736  0006C0  0101               	movlb	1	; () banked
   737  0006C2  0101               	movlb	1	; () banked
   738  0006C4  6F08               	movwf	((?_USER_USB_CALLBACK_EVENT_HANDLER))&0ff
                                 h
   739  0006C6  0E7F               	movlw	high(07FFFh)
   740  0006C8  0101               	movlb	1	; () banked
   741  0006CA  6F09               	movwf	((?_USER_USB_CALLBACK_EVENT_HANDLER+1))&0
                                 ffh
   742  0006CC  ECDC  F00E         	call	_USER_USB_CALLBACK_EVENT_HANDLER	;wreg fre
                                 e
   743                           	line	1017
   744                           ;usb_device.c: 1017: UEIR = 0;;
   745  0006D0  0E00               	movlw	low(0)
   746  0006D2  6E6A               	movwf	((c:3946)),c	;volatile
   747                           	line	1018
   748                           	
   749  0006D4                     l531:		; BSR set to: ?
   750                           
   751                           	line	1025
   752                           ;usb_device.c: 1018: }
   753                           ;usb_device.c: 1025: if(USBDeviceState < DEFAULT
                                 _STATE)
   754  0006D4  0E04               	movlw	(04h)&0ffh
   755  0006D6  601D               	cpfslt	((c:29)),c
   756  0006D8  EF70  F003         	goto	u3061
   757  0006DC  EF72  F003         	goto	u3060
   758  0006E0                     u3061:
   759  0006E0  EF75  F003         	goto	l532
   760  0006E4                     u3060:
   761                           	line	1027
   762                           ;usb_device.c: 1026: {
   763                           ;usb_device.c: 1027: PIR2bits.USBIF = 0;;
   764  0006E4  9AA1               	bcf	((c:4001)),c,5	;volatile
   765                           	line	1028
   766                           ;usb_device.c: 1028: return;
   767  0006E6  EFD0  F003         	goto	l517
   768                           	line	1029
   769                           	
   770  0006EA                     l532:		; BSR set to: ?
   771                           
   772                           	line	1034
   773                           ;usb_device.c: 1029: }
   774                           ;usb_device.c: 1034: if(UIEbits.TRNIE)
   775                           	
   776  0006EA  A669               	btfss	((c:3945)),c,3	;volatile
   777  0006EC  EF7A  F003         	goto	u3071
   778  0006F0  EF7C  F003         	goto	u3070
   779  0006F4                     u3071:
   780  0006F4  EFCF  F003         	goto	l533
   781  0006F8                     u3070:
   782                           	line	1036
   783                           ;usb_device.c: 1035: {
   784                           ;usb_device.c: 1036: for(i = 0; i < 4; i++)
   785  0006F8  0101               	movlb	1	; () banked
   786  0006FA  6F01               	movwf	(??_USBDeviceTasks+1+0)&0ffh
   787  0006FC  0E00               	movlw	low(0)
   788  0006FE  0101               	movlb	1	; () banked
   789  000700  0101               	movlb	1	; () banked
   790  000702  6F00               	movwf	((USBDeviceTasks@i))&0ffh
   791  000704  0101               	movlb	1	; () banked
   792  000706  5101               	movf	(??_USBDeviceTasks+1+0)&0ffh,w
   793  000708  0E03               	movlw	(04h-1)
   794  00070A  0101               	movlb	1	; () banked
   795  00070C  0101               	movlb	1	; () banked
   796  00070E  6500               	cpfsgt	((USBDeviceTasks@i))&0ffh
   797  000710  EF8C  F003         	goto	u3081
   798  000714  EF8E  F003         	goto	u3080
   799  000718                     u3081:
   800  000718  EF90  F003         	goto	l534
   801  00071C                     u3080:
   802  00071C  EFCF  F003         	goto	l533
   803                           	line	1037
   804                           	
   805  000720                     l534:		; BSR set to: ?
   806                           
   807                           	line	1038
   808                           ;usb_device.c: 1037: {
   809                           ;usb_device.c: 1038: if(UIRbits.TRNIF)
   810                           	
   811  000720  A668               	btfss	((c:3944)),c,3	;volatile
   812  000722  EF95  F003         	goto	u3091
   813  000726  EF97  F003         	goto	u3090
   814  00072A                     u3091:
   815  00072A  EFC0  F003         	goto	l537
   816  00072E                     u3090:
   817                           	line	1040
   818                           ;usb_device.c: 1039: {
   819                           ;usb_device.c: 1040: USTATcopy = USTAT;
   820  00072E  CF6C F01B          	movff	(c:3948),(c:27)	;volatile
   821                           	line	1042
   822                           ;usb_device.c: 1042: (UIR &= 0xF7);
   823  000732  9668               	bcf	(0+(3/8)+(c:3944)),c,(3)&7	;volatile
   824                           	line	1049
   825                           ;usb_device.c: 1049: if((USTATcopy & 0b01111000)
                                  == 0)
   826  000734  501B               	movf	((c:27)),c,w
   827  000736  0B78               	andlw	low(078h)
   828  000738  A4D8               	btfss	status,2
   829  00073A  EFA1  F003         	goto	u3101
   830  00073E  EFA3  F003         	goto	u3100
   831  000742                     u3101:
   832  000742  EFA7  F003         	goto	l538
   833  000746                     u3100:
   834                           	line	1051
   835                           ;usb_device.c: 1050: {
   836                           ;usb_device.c: 1051: USBCtrlEPService();
   837  000746  ECC9  F008         	call	_USBCtrlEPService	;wreg free
   838                           	line	1052
   839                           ;usb_device.c: 1052: }
   840  00074A  EFBE  F003         	goto	l539
   841                           	line	1053
   842                           	
   843  00074E                     l538:		; BSR set to: ?
   844                           
   845                           	line	1055
   846                           ;usb_device.c: 1053: else
   847                           ;usb_device.c: 1054: {
   848                           ;usb_device.c: 1055: USER_USB_CALLBACK_EVENT_HAN
                                 DLER(EVENT_TRANSFER,(BYTE*)&USTATcopy,0);
   849  00074E  0E00               	movlw	low(0)
   850  000750  0101               	movlb	1	; () banked
   851  000752  0101               	movlb	1	; () banked
   852  000754  6F0C               	movwf	(0+(?_USER_USB_CALLBACK_EVENT_HANDLER+04h
                                 ))&0ffh
   853  000756  0E00               	movlw	high(0)
   854  000758  0101               	movlb	1	; () banked
   855  00075A  6F0D               	movwf	(1+(?_USER_USB_CALLBACK_EVENT_HANDLER+04h
                                 ))&0ffh
   856  00075C  0E1B               	movlw	low((c:27))
   857  00075E  0101               	movlb	1	; () banked
   858  000760  0101               	movlb	1	; () banked
   859  000762  6F0A               	movwf	(0+(?_USER_USB_CALLBACK_EVENT_HANDLER+02h
                                 ))&0ffh
   860  000764  0E00               	movlw	high((c:27))
   861  000766  0101               	movlb	1	; () banked
   862  000768  6F0B               	movwf	(1+(?_USER_USB_CALLBACK_EVENT_HANDLER+02h
                                 ))&0ffh
   863  00076A  0E72               	movlw	low(072h)
   864  00076C  0101               	movlb	1	; () banked
   865  00076E  0101               	movlb	1	; () banked
   866  000770  6F08               	movwf	((?_USER_USB_CALLBACK_EVENT_HANDLER))&0ff
                                 h
   867  000772  0E00               	movlw	high(072h)
   868  000774  0101               	movlb	1	; () banked
   869  000776  6F09               	movwf	((?_USER_USB_CALLBACK_EVENT_HANDLER+1))&0
                                 ffh
   870  000778  ECDC  F00E         	call	_USER_USB_CALLBACK_EVENT_HANDLER	;wreg fre
                                 e
   871                           	line	1059
   872                           	
   873  00077C                     l539:		; BSR set to: ?
   874                           
   875                           	line	1060
   876                           ;usb_device.c: 1059: }
   877                           ;usb_device.c: 1060: }
   878  00077C  EFC2  F003         	goto	l540
   879                           	line	1061
   880                           	
   881  000780                     l537:		; BSR set to: ?
   882                           
   883                           	line	1062
   884                           ;usb_device.c: 1061: else
   885                           ;usb_device.c: 1062: break;
   886  000780  EFCF  F003         	goto	l533
   887                           	
   888  000784                     l540:		; BSR set to: ?
   889                           
   890                           	line	1036
   891  000784  0101               	movlb	1	; () banked
   892  000786  0101               	movlb	1	; () banked
   893  000788  2B00               	incf	((USBDeviceTasks@i))&0ffh
   894  00078A  0E03               	movlw	(04h-1)
   895  00078C  0101               	movlb	1	; () banked
   896  00078E  0101               	movlb	1	; () banked
   897  000790  6500               	cpfsgt	((USBDeviceTasks@i))&0ffh
   898  000792  EFCD  F003         	goto	u3111
   899  000796  EFCF  F003         	goto	u3110
   900  00079A                     u3111:
   901  00079A  EF90  F003         	goto	l534
   902  00079E                     u3110:
   903                           	
   904  00079E                     l535:		; BSR set to: ?
   905                           
   906                           	line	1064
   907                           	
   908  00079E                     l533:		; BSR set to: ?
   909                           
   910                           	line	1066
   911                           ;usb_device.c: 1063: }
   912                           ;usb_device.c: 1064: }
   913                           ;usb_device.c: 1066: PIR2bits.USBIF = 0;;
   914  00079E  9AA1               	bcf	((c:4001)),c,5	;volatile
   915                           	line	1067
   916                           ;usb_device.c: 1067: }
   917  0007A0                     l517:
   918                           			; BSR set to: ?
   919                           
   920  0007A0  0012               	return
   921                           	opt stack 0
   922                           GLOBAL __end_of_USBDeviceTasks
   923  0007A2                     	__end_of_USBDeviceTasks:
   924                           	FNSIZE	_USBDeviceTasks,2,0
   925                           ; =============== function _USBDeviceTasks ends 
                                 ============
   926                           
   927                           	signat	_USBDeviceTasks,88
   928                           	global	_ProcessIO
   929                           	global	??_ProcessIO
   930                           	global	?_ProcessIO
   931                           
   932                           ; *************** function _ProcessIO **********
                                 *******
   933                           ; Defined at:
   934                           ;		line 89 in file "X:\mplab\mini project\new un
                                 touched\USB Io board fimware source\main.c"
   935                           ; Parameters:
   936                           ;		None
   937                           ; Auto variables:
   938                           ;		None
   939                           ; Return value:
   940                           ;		type: void 
   941                           ;		size: 0
   942                           ; Registers used:
   943                           ;		wreg, fsr0l, fsr0h, status,2, status,0, prodl
                                 , prodh, cstack
   944                           ; Tracked objects:
   945                           ;		On entry : 0/0
   946                           ;		On exit  : 0/0
   947                           ;		Unchanged: 0/0
   948                           ; Data sizes:
   949                           ;		Autos:    2
   950                           ;		Params:   0
   951                           ;		Temp:     3
   952                           ;		Total:    5
   953                           ; This function calls:
   954                           ;		_USBTransferOnePacket
   955                           ; This function is called by:
   956                           ;		_main
   957                           ; This function uses a non-reentrant model
   958                           ; 
   959                                   psect   text2,class=CODE,space=0,reloc=2
   960                           
   961                           	opt lm
   962                           	file	"X:\mplab\mini project\new untouched\USB I
                                 o board fimware source\main.c"
   963                           	line	89
   964  000000                     	__size_of_ProcessIO	equ	__end_of_ProcessIO-_Pro
                                 cessIO
   965                           ;main.c: 88: void ProcessIO(void)
   966                           ;main.c: 89: {
   967                           	
   968  00185C                     _ProcessIO:		; BSR set to: ?
   969                           
   970                           	opt stack 28
   971                           	line	91
   972  00185C  0E1F               	movlw	(020h-1)
   973  00185E  641D               	cpfsgt	((c:29)),c
   974  001860  EF34  F00C         	goto	u2801
   975  001864  EF36  F00C         	goto	u2800
   976  001868                     u2801:
   977  001868  EF3D  F00C         	goto	l600000330
   978  00186C                     u2800:
   979  00186C  A26D               	btfss	c:(31593/8),(31593)&7
   980  00186E  EF3B  F00C         	goto	u2811
   981  001872  EF3D  F00C         	goto	u2810
   982  001876                     u2811:
   983  001876  EF3F  F00C         	goto	l260
   984  00187A                     u2810:
   985                           	
   986  00187A                     l600000330:		; BSR set to: ?
   987                           
   988  00187A  EFAC  F00C         	goto	l259
   989                           	
   990  00187E                     l260:		; BSR set to: ?
   991                           
   992                           	line	92
   993                           ;main.c: 92: if(!(USBOutHandle==0?0:((volatile B
                                 DT_ENTRY*)USBOutHandle)->STAT.UOWN))
   994  00187E  C020 FFE9          	movff	(c:32),fsr0l
   995  001882  C021 FFEA          	movff	(c:32+1),fsr0h
   996  001886  34EF               	rlcf	(indf0)&0ffh,w
   997  001888  36E8               	rlcf	wreg,f
   998  00188A  0B01               	andlw	1
   999  00188C  0101               	movlb	1	; () banked
  1000  00188E  6F02               	movwf	(??_ProcessIO+2+0)&0ffh
  1001  001890  0101               	movlb	1	; () banked
  1002  001892  5102               	movf	((??_ProcessIO+2+0))&0ffh,w
  1003  001894  0101               	movlb	1	; () banked
  1004  001896  0101               	movlb	1	; () banked
  1005  001898  6F00               	movwf	((_ProcessIO$1560))&0ffh
  1006  00189A  0101               	movlb	1	; () banked
  1007  00189C  6B01               	clrf	((_ProcessIO$1560+1))&0ffh
  1008  00189E  5021               	movf	((c:32+1)),c,w
  1009  0018A0  1020               	iorwf ((c:32)),c,w
  1010                           
  1011  0018A2  A4D8               	btfss	status,2
  1012  0018A4  EF56  F00C         	goto	u2821
  1013  0018A8  EF58  F00C         	goto	u2820
  1014  0018AC                     u2821:
  1015  0018AC  EF5F  F00C         	goto	l500000331
  1016  0018B0                     u2820:
  1017  0018B0  0E00               	movlw	low(0)
  1018  0018B2  0101               	movlb	1	; () banked
  1019  0018B4  0101               	movlb	1	; () banked
  1020  0018B6  6F00               	movwf	((_ProcessIO$1560))&0ffh
  1021  0018B8  0E00               	movlw	high(0)
  1022  0018BA  0101               	movlb	1	; () banked
  1023  0018BC  6F01               	movwf	((_ProcessIO$1560+1))&0ffh
  1024                           	
  1025  0018BE                     l500000331:		; BSR set to: ?
  1026                           
  1027  0018BE  0101               	movlb	1	; () banked
  1028  0018C0  0101               	movlb	1	; () banked
  1029  0018C2  5101               	movf	((_ProcessIO$1560+1))&0ffh,w
  1030  0018C4  1100               	iorwf ((_ProcessIO$1560))&0ffh,w
  1031                           
  1032  0018C6  A4D8               	btfss	status,2
  1033  0018C8  EF68  F00C         	goto	u2831
  1034  0018CC  EF6A  F00C         	goto	u2830
  1035  0018D0                     u2831:
  1036  0018D0  EFAC  F00C         	goto	l261
  1037  0018D4                     u2830:
  1038                           	line	94
  1039                           ;main.c: 93: {
  1040                           ;main.c: 94: if( ReceivedDataBuffer[0]=0xFF)
  1041  0018D4  0104               	movlb	4	; () banked
  1042  0018D6  0104               	movlb	4	; () banked
  1043  0018D8  6980               	setf	((1152))&0ffh
  1044                           	line	96
  1045                           ;main.c: 95: {
  1046                           ;main.c: 96: PORTB = ReceivedDataBuffer[ 1];
  1047  0018DA  C481 FF81          	movff	0+(1152+01h),(c:3969)	;volatile
  1048                           	line	97
  1049                           ;main.c: 97: T1CON=0xB1;
  1050  0018DE  0101               	movlb	1	; () banked
  1051  0018E0  6F02               	movwf	(??_ProcessIO+2+0)&0ffh
  1052  0018E2  0EB1               	movlw	low(0B1h)
  1053  0018E4  6ECD               	movwf	((c:4045)),c
  1054  0018E6  0101               	movlb	1	; () banked
  1055  0018E8  5102               	movf	(??_ProcessIO+2+0)&0ffh,w
  1056                           	line	98
  1057                           ;main.c: 98: T0CON=0xB8;
  1058  0018EA  0101               	movlb	1	; () banked
  1059  0018EC  6F02               	movwf	(??_ProcessIO+2+0)&0ffh
  1060  0018EE  0EB8               	movlw	low(0B8h)
  1061  0018F0  6ED5               	movwf	((c:4053)),c
  1062  0018F2  0101               	movlb	1	; () banked
  1063  0018F4  5102               	movf	(??_ProcessIO+2+0)&0ffh,w
  1064                           	line	99
  1065                           ;main.c: 99: ReceivedDataBuffer[0]=0x00;
  1066  0018F6  0101               	movlb	1	; () banked
  1067  0018F8  6F02               	movwf	(??_ProcessIO+2+0)&0ffh
  1068  0018FA  0E00               	movlw	low(0)
  1069  0018FC  0104               	movlb	4	; () banked
  1070  0018FE  0104               	movlb	4	; () banked
  1071  001900  6F80               	movwf	((1152))&0ffh
  1072  001902  0101               	movlb	1	; () banked
  1073  001904  5102               	movf	(??_ProcessIO+2+0)&0ffh,w
  1074                           	line	100
  1075                           ;main.c: 100: }
  1076  001906  EF85  F00C         	goto	l263
  1077                           	line	106
  1078                           	
  1079  00190A                     l263:		; BSR set to: ?
  1080                           
  1081                           	line	107
  1082                           ;main.c: 106: }
  1083                           ;main.c: 107: USBOutHandle = USBTransferOnePacke
                                 t(1,0,(BYTE*)&ReceivedDataBuffer,64);
  1084  00190A  0101               	movlb	1	; () banked
  1085  00190C  6F02               	movwf	(??_ProcessIO+2+0)&0ffh
  1086  00190E  0E40               	movlw	low(040h)
  1087  001910  0101               	movlb	1	; () banked
  1088  001912  0101               	movlb	1	; () banked
  1089  001914  6F17               	movwf	(0+(?_USBTransferOnePacket+04h))&0ffh
  1090  001916  0101               	movlb	1	; () banked
  1091  001918  5102               	movf	(??_ProcessIO+2+0)&0ffh,w
  1092  00191A  0104               	movlb	4	; () banked
  1093  00191C  0E80               	movlw	low(1152)
  1094  00191E  0101               	movlb	1	; () banked
  1095  001920  0101               	movlb	1	; () banked
  1096  001922  6F15               	movwf	(0+(?_USBTransferOnePacket+02h))&0ffh
  1097  001924  0104               	movlb	4	; () banked
  1098  001926  0E04               	movlw	high(1152)
  1099  001928  0101               	movlb	1	; () banked
  1100  00192A  6F16               	movwf	(1+(?_USBTransferOnePacket+02h))&0ffh
  1101  00192C  0101               	movlb	1	; () banked
  1102  00192E  6F03               	movwf	(??_ProcessIO+3+0)&0ffh
  1103  001930  0E00               	movlw	low(0)
  1104  001932  0101               	movlb	1	; () banked
  1105  001934  0101               	movlb	1	; () banked
  1106  001936  6F14               	movwf	(0+(?_USBTransferOnePacket+01h))&0ffh
  1107  001938  0101               	movlb	1	; () banked
  1108  00193A  5103               	movf	(??_ProcessIO+3+0)&0ffh,w
  1109  00193C  0101               	movlb	1	; () banked
  1110  00193E  6F04               	movwf	(??_ProcessIO+4+0)&0ffh
  1111  001940  0E01               	movlw	low(01h)
  1112  001942  0101               	movlb	1	; () banked
  1113  001944  0101               	movlb	1	; () banked
  1114  001946  6F13               	movwf	((?_USBTransferOnePacket))&0ffh
  1115  001948  0101               	movlb	1	; () banked
  1116  00194A  5104               	movf	(??_ProcessIO+4+0)&0ffh,w
  1117  00194C  EC2E  F00B         	call	_USBTransferOnePacket	;wreg free
  1118  001950  C113  F020         	movff	0+?_USBTransferOnePacket,(c:32)
  1119  001954  C114  F021         	movff	1+?_USBTransferOnePacket,(c:32+1)
  1120                           	line	108
  1121                           	
  1122  001958                     l261:		; BSR set to: ?
  1123                           
  1124                           	line	109
  1125                           ;main.c: 108: }
  1126                           ;main.c: 109: }
  1127  001958                     l259:
  1128                           			; BSR set to: ?
  1129                           
  1130  001958  0012               	return
  1131                           	opt stack 0
  1132                           GLOBAL __end_of_ProcessIO
  1133  00195A                     	__end_of_ProcessIO:
  1134                           	FNSIZE	_ProcessIO,5,0
  1135                           ; =============== function _ProcessIO ends =====
                                 =======
  1136                           
  1137                           	signat	_ProcessIO,88
  1138                           	global	_InitialiseSystem
  1139                           	global	??_InitialiseSystem
  1140                           	global	?_InitialiseSystem
  1141                           
  1142                           ; *************** function _InitialiseSystem ***
                                 **************
  1143                           ; Defined at:
  1144                           ;		line 44 in file "X:\mplab\mini project\new un
                                 touched\USB Io board fimware source\main.c"
  1145                           ; Parameters:
  1146                           ;		None
  1147                           ; Auto variables:
  1148                           ;		None
  1149                           ; Return value:
  1150                           ;		type: void 
  1151                           ;		size: 0
  1152                           ; Registers used:
  1153                           ;		wreg, fsr0l, fsr0h, status,2, status,0, prodl
                                 , prodh, cstack
  1154                           ; Tracked objects:
  1155                           ;		On entry : 0/0
  1156                           ;		On exit  : 0/0
  1157                           ;		Unchanged: 0/0
  1158                           ; Data sizes:
  1159                           ;		Autos:    0
  1160                           ;		Params:   0
  1161                           ;		Temp:     1
  1162                           ;		Total:    1
  1163                           ; This function calls:
  1164                           ;		_USBDeviceInit
  1165                           ; This function is called by:
  1166                           ;		_main
  1167                           ; This function uses a non-reentrant model
  1168                           ; 
  1169                                   psect   text3,class=CODE,space=0,reloc=2
  1170                           
  1171                           	opt lm
  1172                           	file	"X:\mplab\mini project\new untouched\USB I
                                 o board fimware source\main.c"
  1173                           	line	44
  1174  000000                     	__size_of_InitialiseSystem	equ	__end_of_Initial
                                 iseSystem-_InitialiseSystem
  1175                           ;main.c: 43: static void InitialiseSystem(void)
  1176                           ;main.c: 44: {
  1177                           	
  1178  001F6A                     _InitialiseSystem:		; BSR set to: ?
  1179                           
  1180                           	opt stack 28
  1181                           	line	45
  1182                           ;main.c: 45: ADCON1 = 0x0F;
  1183  001F6A  0101               	movlb	1	; () banked
  1184  001F6C  6F00               	movwf	(??_InitialiseSystem+0+0)&0ffh
  1185  001F6E  0E0F               	movlw	low(0Fh)
  1186  001F70  6EC1               	movwf	((c:4033)),c
  1187  001F72  0101               	movlb	1	; () banked
  1188  001F74  5100               	movf	(??_InitialiseSystem+0+0)&0ffh,w
  1189                           	line	46
  1190                           ;main.c: 46: OSCCON=0x00;
  1191  001F76  0E00               	movlw	low(0)
  1192  001F78  6ED3               	movwf	((c:4051)),c	;volatile
  1193                           	line	47
  1194                           ;main.c: 47: TRISB = 0x00;
  1195  001F7A  0E00               	movlw	low(0)
  1196  001F7C  6E93               	movwf	((c:3987)),c	;volatile
  1197                           	line	48
  1198                           ;main.c: 48: TRISC = 0b00000000;
  1199  001F7E  0E00               	movlw	low(0)
  1200  001F80  6E94               	movwf	((c:3988)),c	;volatile
  1201                           	line	49
  1202                           ;main.c: 49: TRISD = 0b00000000;
  1203  001F82  0E00               	movlw	low(0)
  1204  001F84  6E95               	movwf	((c:3989)),c	;volatile
  1205                           	line	50
  1206                           ;main.c: 50: TRISE = 0b00000000;
  1207  001F86  0E00               	movlw	low(0)
  1208  001F88  6E96               	movwf	((c:3990)),c	;volatile
  1209                           	line	51
  1210                           ;main.c: 51: PORTB = 0b00000001;
  1211  001F8A  0E01               	movlw	low(01h)
  1212  001F8C  6E81               	movwf	((c:3969)),c	;volatile
  1213                           	line	52
  1214                           ;main.c: 52: PORTD = 0b00000000;
  1215  001F8E  0E00               	movlw	low(0)
  1216  001F90  6E83               	movwf	((c:3971)),c	;volatile
  1217                           	line	53
  1218                           ;main.c: 53: PORTE = 0b00000000;
  1219  001F92  0E00               	movlw	low(0)
  1220  001F94  6E84               	movwf	((c:3972)),c	;volatile
  1221                           	line	54
  1222                           ;main.c: 54: USBEN=1;
  1223  001F96  866D               	bsf	c:(31595/8),(31595)&7	;volatile
  1224                           	line	55
  1225                           ;main.c: 55: FSEN=1;
  1226  001F98  846F               	bsf	c:(31610/8),(31610)&7
  1227                           	line	56
  1228                           ;main.c: 56: UPUEN=1;
  1229  001F9A  886F               	bsf	c:(31612/8),(31612)&7
  1230                           	line	57
  1231                           ;main.c: 57: UTRDIS=1;
  1232  001F9C  866F               	bsf	c:(31611/8),(31611)&7
  1233                           	line	58
  1234                           ;main.c: 58: SUSPND=0;
  1235  001F9E  926D               	bcf	c:(31593/8),(31593)&7
  1236                           	line	59
  1237                           ;main.c: 59: TMR1IE=1;
  1238  001FA0  809D               	bsf	c:(31976/8),(31976)&7
  1239                           	line	60
  1240                           ;main.c: 60: TMR1IP=1;
  1241  001FA2  809F               	bsf	c:(31992/8),(31992)&7
  1242                           	line	61
  1243                           ;main.c: 61: TMR1IF=0;
  1244  001FA4  909E               	bcf	c:(31984/8),(31984)&7	;volatile
  1245                           	line	62
  1246                           ;main.c: 62: T0CON=0x00;
  1247  001FA6  0101               	movlb	1	; () banked
  1248  001FA8  6F00               	movwf	(??_InitialiseSystem+0+0)&0ffh
  1249  001FAA  0E00               	movlw	low(0)
  1250  001FAC  6ED5               	movwf	((c:4053)),c
  1251  001FAE  0101               	movlb	1	; () banked
  1252  001FB0  5100               	movf	(??_InitialiseSystem+0+0)&0ffh,w
  1253                           	line	63
  1254                           ;main.c: 63: TMR1H=0x0B;
  1255  001FB2  0E0B               	movlw	low(0Bh)
  1256  001FB4  6ECF               	movwf	((c:4047)),c	;volatile
  1257                           	line	64
  1258                           ;main.c: 64: TMR1L=0xDB;
  1259  001FB6  0EDB               	movlw	low(0DBh)
  1260  001FB8  6ECE               	movwf	((c:4046)),c	;volatile
  1261                           	line	65
  1262                           ;main.c: 65: T1CON=0x00;
  1263  001FBA  0101               	movlb	1	; () banked
  1264  001FBC  6F00               	movwf	(??_InitialiseSystem+0+0)&0ffh
  1265  001FBE  0E00               	movlw	low(0)
  1266  001FC0  6ECD               	movwf	((c:4045)),c
  1267  001FC2  0101               	movlb	1	; () banked
  1268  001FC4  5100               	movf	(??_InitialiseSystem+0+0)&0ffh,w
  1269                           	line	66
  1270                           ;main.c: 66: IPEN=1;
  1271  001FC6  8ED0               	bsf	c:(32391/8),(32391)&7
  1272                           	line	67
  1273                           ;main.c: 67: GIE=1;
  1274  001FC8  8EF2               	bsf	c:(32663/8),(32663)&7
  1275                           	line	68
  1276                           ;main.c: 68: PEIE=1;
  1277  001FCA  8CF2               	bsf	c:(32662/8),(32662)&7
  1278                           	line	74
  1279                           ;main.c: 74: USBOutHandle = 0;
  1280  001FCC  0E00               	movlw	low(0)
  1281  001FCE  6E20               	movwf	((c:32)),c
  1282  001FD0  0E00               	movlw	high(0)
  1283  001FD2  6E21               	movwf	((c:32+1)),c
  1284                           	line	75
  1285                           ;main.c: 75: USBInHandle = 0;
  1286  001FD4  0E00               	movlw	low(0)
  1287  001FD6  6E22               	movwf	((c:34)),c
  1288  001FD8  0E00               	movlw	high(0)
  1289  001FDA  6E23               	movwf	((c:34+1)),c
  1290                           	line	76
  1291                           ;main.c: 76: blinkStatusValid = TRUE;
  1292  001FDC  0101               	movlb	1	; () banked
  1293  001FDE  6F00               	movwf	(??_InitialiseSystem+0+0)&0ffh
  1294  001FE0  0E01               	movlw	low(01h)
  1295  001FE2  6E32               	movwf	((c:50)),c
  1296  001FE4  0101               	movlb	1	; () banked
  1297  001FE6  5100               	movf	(??_InitialiseSystem+0+0)&0ffh,w
  1298                           	line	78
  1299                           ;main.c: 77: void delayMs();
  1300                           ;main.c: 78: USBDeviceInit();
  1301  001FE8  EC6A  F009         	call	_USBDeviceInit	;wreg free
  1302                           	line	79
  1303                           ;main.c: 79: }
  1304  001FEC                     l251:
  1305                           			; BSR set to: ?
  1306                           
  1307  001FEC  0012               	return
  1308                           	opt stack 0
  1309                           GLOBAL __end_of_InitialiseSystem
  1310  001FEE                     	__end_of_InitialiseSystem:
  1311                           	FNSIZE	_InitialiseSystem,1,0
  1312                           ; =============== function _InitialiseSystem end
                                 s ============
  1313                           
  1314                           	signat	_InitialiseSystem,88
  1315                           	global	_USBSuspend
  1316                           	global	??_USBSuspend
  1317                           	global	?_USBSuspend
  1318                           
  1319                           ; *************** function _USBSuspend *********
                                 ********
  1320                           ; Defined at:
  1321                           ;		line 1129 in file "X:\mplab\mini project\new 
                                 untouched\USB Io board fimware source\usb_device
                                 .c"
  1322                           ; Parameters:
  1323                           ;		None
  1324                           ; Auto variables:
  1325                           ;		None
  1326                           ; Return value:
  1327                           ;		type: void 
  1328                           ;		size: 0
  1329                           ; Registers used:
  1330                           ;		wreg, fsr0l, fsr0h, status,2, status,0, prodl
                                 , prodh, cstack
  1331                           ; Tracked objects:
  1332                           ;		On entry : 0/0
  1333                           ;		On exit  : 0/0
  1334                           ;		Unchanged: 0/0
  1335                           ; Data sizes:
  1336                           ;		Autos:    0
  1337                           ;		Params:   0
  1338                           ;		Temp:     0
  1339                           ;		Total:    0
  1340                           ; This function calls:
  1341                           ;		_USER_USB_CALLBACK_EVENT_HANDLER
  1342                           ; This function is called by:
  1343                           ;		_USBDeviceTasks
  1344                           ; This function uses a non-reentrant model
  1345                           ; 
  1346                                   psect   text4,class=CODE,space=0,reloc=2
  1347                           
  1348                           	opt lm
  1349                           	file	"X:\mplab\mini project\new untouched\USB I
                                 o board fimware source\usb_device.c"
  1350                           	line	1129
  1351  000000                     	__size_of_USBSuspend	equ	__end_of_USBSuspend-_U
                                 SBSuspend
  1352                           ;usb_device.c: 1128: void USBSuspend(void)
  1353                           ;usb_device.c: 1129: {
  1354                           	
  1355  002230                     _USBSuspend:		; BSR set to: ?
  1356                           
  1357                           	opt stack 27
  1358                           	line	1153
  1359                           ;usb_device.c: 1153: UIEbits.ACTVIE = 1;
  1360  002230  8469               	bsf	((c:3945)),c,2	;volatile
  1361                           	line	1154
  1362                           ;usb_device.c: 1154: (UIR &= 0xEF);
  1363  002232  9868               	bcf	(0+(4/8)+(c:3944)),c,(4)&7	;volatile
  1364                           	line	1157
  1365                           ;usb_device.c: 1157: UCONbits.SUSPND = 1;
  1366  002234  826D               	bsf	((c:3949)),c,1	;volatile
  1367                           	line	1167
  1368                           ;usb_device.c: 1167: USER_USB_CALLBACK_EVENT_HAN
                                 DLER(EVENT_SUSPEND,0,0);
  1369  002236  0E00               	movlw	low(0)
  1370  002238  0101               	movlb	1	; () banked
  1371  00223A  0101               	movlb	1	; () banked
  1372  00223C  6F0C               	movwf	(0+(?_USER_USB_CALLBACK_EVENT_HANDLER+04h
                                 ))&0ffh
  1373  00223E  0E00               	movlw	high(0)
  1374  002240  0101               	movlb	1	; () banked
  1375  002242  6F0D               	movwf	(1+(?_USER_USB_CALLBACK_EVENT_HANDLER+04h
                                 ))&0ffh
  1376  002244  0E00               	movlw	low(0)
  1377  002246  0101               	movlb	1	; () banked
  1378  002248  0101               	movlb	1	; () banked
  1379  00224A  6F0A               	movwf	(0+(?_USER_USB_CALLBACK_EVENT_HANDLER+02h
                                 ))&0ffh
  1380  00224C  0E00               	movlw	high(0)
  1381  00224E  0101               	movlb	1	; () banked
  1382  002250  6F0B               	movwf	(1+(?_USER_USB_CALLBACK_EVENT_HANDLER+02h
                                 ))&0ffh
  1383  002252  0E75               	movlw	low(075h)
  1384  002254  0101               	movlb	1	; () banked
  1385  002256  0101               	movlb	1	; () banked
  1386  002258  6F08               	movwf	((?_USER_USB_CALLBACK_EVENT_HANDLER))&0ff
                                 h
  1387  00225A  0E00               	movlw	high(075h)
  1388  00225C  0101               	movlb	1	; () banked
  1389  00225E  6F09               	movwf	((?_USER_USB_CALLBACK_EVENT_HANDLER+1))&0
                                 ffh
  1390  002260  ECDC  F00E         	call	_USER_USB_CALLBACK_EVENT_HANDLER	;wreg fre
                                 e
  1391                           	line	1168
  1392                           ;usb_device.c: 1168: }
  1393  002264                     l544:
  1394                           			; BSR set to: ?
  1395                           
  1396  002264  0012               	return
  1397                           	opt stack 0
  1398                           GLOBAL __end_of_USBSuspend
  1399  002266                     	__end_of_USBSuspend:
  1400                           	FNSIZE	_USBSuspend,0,0
  1401                           ; =============== function _USBSuspend ends ====
                                 ========
  1402                           
  1403                           	signat	_USBSuspend,88
  1404                           	global	_USBStallHandler
  1405                           	global	??_USBStallHandler
  1406                           	global	?_USBStallHandler
  1407                           
  1408                           ; *************** function _USBStallHandler ****
                                 *************
  1409                           ; Defined at:
  1410                           ;		line 1086 in file "X:\mplab\mini project\new 
                                 untouched\USB Io board fimware source\usb_device
                                 .c"
  1411                           ; Parameters:
  1412                           ;		None
  1413                           ; Auto variables:
  1414                           ;		None
  1415                           ; Return value:
  1416                           ;		type: void 
  1417                           ;		size: 0
  1418                           ; Registers used:
  1419                           ;		wreg, fsr0l, fsr0h, status,2, status,0
  1420                           ; Tracked objects:
  1421                           ;		On entry : 0/0
  1422                           ;		On exit  : 0/0
  1423                           ;		Unchanged: 0/0
  1424                           ; Data sizes:
  1425                           ;		Autos:    0
  1426                           ;		Params:   0
  1427                           ;		Temp:     0
  1428                           ;		Total:    0
  1429                           ; This function calls:
  1430                           ;		Nothing
  1431                           ; This function is called by:
  1432                           ;		_USBDeviceTasks
  1433                           ; This function uses a non-reentrant model
  1434                           ; 
  1435                                   psect   text5,class=CODE,space=0,reloc=2
  1436                           
  1437                           	opt lm
  1438                           	file	"X:\mplab\mini project\new untouched\USB I
                                 o board fimware source\usb_device.c"
  1439                           	line	1086
  1440  000000                     	__size_of_USBStallHandler	equ	__end_of_USBStall
                                 Handler-_USBStallHandler
  1441                           ;usb_device.c: 1085: void USBStallHandler(void)
  1442                           ;usb_device.c: 1086: {
  1443                           	
  1444  002150                     _USBStallHandler:		; BSR set to: ?
  1445                           
  1446                           	opt stack 27
  1447                           	line	1098
  1448                           ;usb_device.c: 1098: if(UEP0bits.EPSTALL == 1)
  1449                           	
  1450  002150  A070               	btfss	((c:3952)),c,0	;volatile
  1451  002152  EFAD  F010         	goto	u3321
  1452  002156  EFAF  F010         	goto	u3320
  1453  00215A                     u3321:
  1454  00215A  EFCE  F010         	goto	l542
  1455  00215E                     u3320:
  1456                           	line	1101
  1457                           ;usb_device.c: 1099: {
  1458                           ;usb_device.c: 1101: if((pBDTEntryEP0OutCurrent-
                                 >STAT.Val == 0x80) && (pBDTEntryIn[0]->STAT.Val 
                                 == (0x80|0x04)))
  1459  00215E  0E80               	movlw	(080h)&0ffh
  1460  002160  C015 FFE9          	movff	(c:21),fsr0l
  1461  002164  C016 FFEA          	movff	(c:21+1),fsr0h
  1462  002168  62EF               	cpfseq	indf0
  1463  00216A  EFB9  F010         	goto	u3331
  1464  00216E  EFBB  F010         	goto	u3330
  1465  002172                     u3331:
  1466  002172  EFCD  F010         	goto	l543
  1467  002176                     u3330:
  1468  002176  0E84               	movlw	(084h)&0ffh
  1469  002178  C00F FFE9          	movff	(c:15),fsr0l
  1470  00217C  C010 FFEA          	movff	(c:15+1),fsr0h
  1471  002180  62EF               	cpfseq	indf0
  1472  002182  EFC5  F010         	goto	u3341
  1473  002186  EFC7  F010         	goto	u3340
  1474  00218A                     u3341:
  1475  00218A  EFCD  F010         	goto	l543
  1476  00218E                     u3340:
  1477                           	line	1104
  1478                           ;usb_device.c: 1102: {
  1479                           ;usb_device.c: 1104: pBDTEntryEP0OutCurrent->STA
                                 T.Val = 0x80|0x00|0x08|0x04;
  1480  00218E  C015 FFE9          	movff	(c:21),fsr0l
  1481  002192  C016 FFEA          	movff	(c:21+1),fsr0h
  1482  002196  0E8C               	movlw	low(08Ch)
  1483  002198  6EEF               	movwf	indf0
  1484                           	line	1105
  1485                           	
  1486  00219A                     l543:		; BSR set to: ?
  1487                           
  1488                           	line	1106
  1489                           ;usb_device.c: 1105: }
  1490                           ;usb_device.c: 1106: UEP0bits.EPSTALL = 0;
  1491  00219A  9070               	bcf	((c:3952)),c,0	;volatile
  1492                           	line	1107
  1493                           	
  1494  00219C                     l542:		; BSR set to: ?
  1495                           
  1496                           	line	1109
  1497                           ;usb_device.c: 1107: }
  1498                           ;usb_device.c: 1109: (UIR &= 0xDF);
  1499  00219C  9A68               	bcf	(0+(5/8)+(c:3944)),c,(5)&7	;volatile
  1500                           	line	1110
  1501                           ;usb_device.c: 1110: }
  1502  00219E                     l541:
  1503                           			; BSR set to: ?
  1504                           
  1505  00219E  0012               	return
  1506                           	opt stack 0
  1507                           GLOBAL __end_of_USBStallHandler
  1508  0021A0                     	__end_of_USBStallHandler:
  1509                           	FNSIZE	_USBStallHandler,0,0
  1510                           ; =============== function _USBStallHandler ends
                                  ============
  1511                           
  1512                           	signat	_USBStallHandler,88
  1513                           	global	_USBCtrlEPService
  1514                           	global	??_USBCtrlEPService
  1515                           	global	?_USBCtrlEPService
  1516                           
  1517                           ; *************** function _USBCtrlEPService ***
                                 **************
  1518                           ; Defined at:
  1519                           ;		line 1251 in file "X:\mplab\mini project\new 
                                 untouched\USB Io board fimware source\usb_device
                                 .c"
  1520                           ; Parameters:
  1521                           ;		None
  1522                           ; Auto variables:
  1523                           ;		setup_cnt   	       	type: unsigned char 
  1524                           ; Return value:
  1525                           ;		type: void 
  1526                           ;		size: 0
  1527                           ; Registers used:
  1528                           ;		wreg, fsr0l, fsr0h, fsr1l, fsr1h, status,2, s
                                 tatus,0, pclat, tosl, tblptrl, tblptrh, tblptru,
                                  tablat, prodl, prodh, cstack
  1529                           ; Tracked objects:
  1530                           ;		On entry : 0/0
  1531                           ;		On exit  : 0/0
  1532                           ;		Unchanged: 0/0
  1533                           ; Data sizes:
  1534                           ;		Autos:    1
  1535                           ;		Params:   0
  1536                           ;		Temp:     2
  1537                           ;		Total:    3
  1538                           ; This function calls:
  1539                           ;		_USBCtrlTrfSetupHandler
  1540                           ;		_USBCtrlTrfOutHandler
  1541                           ;		_USBCtrlTrfInHandler
  1542                           ; This function is called by:
  1543                           ;		_USBDeviceTasks
  1544                           ; This function uses a non-reentrant model
  1545                           ; 
  1546                                   psect   text6,class=CODE,space=0,reloc=2
  1547                           
  1548                           	opt lm
  1549                           	file	"X:\mplab\mini project\new untouched\USB I
                                 o board fimware source\usb_device.c"
  1550                           	line	1251
  1551  000000                     	__size_of_USBCtrlEPService	equ	__end_of_USBCtrl
                                 EPService-_USBCtrlEPService
  1552                           ;usb_device.c: 1250: void USBCtrlEPService(void)
  1553                           ;usb_device.c: 1251: {
  1554                           	
  1555  001192                     _USBCtrlEPService:		; BSR set to: ?
  1556                           
  1557                           	opt stack 27
  1558                           	line	1253
  1559                           ;usb_device.c: 1253: if((USTATcopy & ~0x02) == 0
                                 x00)
  1560  001192  501B               	movf	((c:27)),c,w
  1561  001194  0BFD               	andlw	low(0FDh)
  1562  001196  A4D8               	btfss	status,2
  1563  001198  EFD0  F008         	goto	u3141
  1564  00119C  EFD2  F008         	goto	u3140
  1565  0011A0                     u3141:
  1566  0011A0  EF5D  F009         	goto	l550
  1567  0011A4                     u3140:
  1568                           	line	1257
  1569                           ;usb_device.c: 1254: {
  1570                           ;usb_device.c: 1257: pBDTEntryEP0OutCurrent = (v
                                 olatile BDT_ENTRY*)&BDT[(USTATcopy & 0x7E)>>1];
  1571  0011A4  C01B F103          	movff	(c:27),??_USBCtrlEPService+1+0
  1572  0011A8  0E7E               	movlw	07Eh
  1573  0011AA  0101               	movlb	1	; () banked
  1574  0011AC  1703               	andwf	(??_USBCtrlEPService+1+0)&0ffh
  1575  0011AE  0101               	movlb	1	; () banked
  1576  0011B0  90D8               	bcf	status,0
  1577  0011B2  3103               	rrcf	(??_USBCtrlEPService+1+0)&0ffh,w
  1578  0011B4  0D04               	mullw	04h
  1579  0011B6  0104               	movlb	4	; () banked
  1580  0011B8  0E00               	movlw	low(1024)	;volatile
  1581  0011BA  24F3               	addwf	(prodl),c,w
  1582                           	
  1583  0011BC  6E15               	movwf	((c:21)),c
  1584  0011BE  6A16               	clrf	1+((c:21)),c
  1585  0011C0  0104               	movlb	4	; () banked
  1586  0011C2  0E04               	movlw	high(1024)	;volatile
  1587  0011C4  2216               	addwfc	1+((c:21)),c
  1588                           	line	1265
  1589                           ;usb_device.c: 1265: pBDTEntryEP0OutNext = pBDTE
                                 ntryEP0OutCurrent;
  1590  0011C6  C015 F013          	movff	(c:21),(c:19)
  1591  0011CA  C016 F014          	movff	(c:21+1),(c:19+1)
  1592                           	line	1267
  1593                           ;usb_device.c: 1267: ((BYTE_VAL*)&pBDTEntryEP0Ou
                                 tNext)->Val ^= 0x0004;
  1594  0011CE  0E04               	movlw	(04h)&0ffh
  1595  0011D0  1A13               	xorwf	((c:19)),c
  1596                           	line	1270
  1597                           ;usb_device.c: 1270: if(pBDTEntryEP0OutCurrent->
                                 STAT.PID == 0xD)
  1598  0011D2  C015 FFE9          	movff	(c:21),fsr0l
  1599  0011D6  C016 FFEA          	movff	(c:21+1),fsr0h
  1600  0011DA  30EF               	rrcf	(indf0)&0ffh,w
  1601  0011DC  32E8               	rrcf	wreg,f
  1602  0011DE  0B0F               	andlw	(1<<4)-1
  1603  0011E0  0A0D               	xorlw	0Dh
  1604  0011E2  A4D8               	btfss	status,2
  1605  0011E4  EFF6  F008         	goto	u3151
  1606  0011E8  EFF8  F008         	goto	u3150
  1607  0011EC                     u3151:
  1608  0011EC  EF59  F009         	goto	l551
  1609  0011F0                     u3150:
  1610                           	line	1275
  1611                           ;usb_device.c: 1271: {
  1612                           ;usb_device.c: 1275: if(pBDTEntryEP0OutCurrent->
                                 ADR == (BYTE*)&CtrlTrfData)
  1613  0011F0  0E20               	movlw	low(1312)	;volatile
  1614  0011F2  0101               	movlb	1	; () banked
  1615  0011F4  6F03               	movwf	(??_USBCtrlEPService+1+0)&0ffh
  1616  0011F6  0E05               	movlw	high(1312)	;volatile
  1617  0011F8  6F04               	movwf	(??_USBCtrlEPService+1+0+1)&0ffh
  1618  0011FA  0E02               	movlw	low(02h)
  1619  0011FC  2415               	addwf	((c:21)),c,w
  1620  0011FE  6EE9               	movwf	c:fsr0l
  1621  001200  0E00               	movlw	high(02h)
  1622  001202  2016               	addwfc	((c:21+1)),c,w
  1623  001204  6EEA               	movwf	1+c:fsr0l
  1624  001206  0101               	movlb	1	; () banked
  1625  001208  52EE               	movf	postinc0
  1626  00120A  5104               	movf	(??_USBCtrlEPService+1+1)&0ffh,w
  1627  00120C  18ED               	xorwf	postdec0,w
  1628  00120E  C103  FFE8         	movff	??_USBCtrlEPService+1+0,wreg
  1629  001212  B4D8               	btfsc	status,2
  1630  001214  18EF               	xorwf	indf0,w
  1631                           
  1632  001216  A4D8               	btfss	status,2
  1633  001218  EF10  F009         	goto	u3161
  1634  00121C  EF12  F009         	goto	u3160
  1635  001220                     u3161:
  1636  001220  EF55  F009         	goto	l552
  1637  001224                     u3160:
  1638                           	line	1279
  1639                           ;usb_device.c: 1276: {
  1640                           ;usb_device.c: 1277: unsigned char setup_cnt;
  1641                           ;usb_device.c: 1279: pBDTEntryEP0OutCurrent->ADR
                                  = (BYTE*)&SetupPkt;
  1642  001224  0E02               	movlw	low(02h)
  1643  001226  2415               	addwf	((c:21)),c,w
  1644  001228  6EE9               	movwf	c:fsr0l
  1645  00122A  0E00               	movlw	high(02h)
  1646  00122C  2016               	addwfc	((c:21+1)),c,w
  1647  00122E  6EEA               	movwf	1+c:fsr0l
  1648  001230  0105               	movlb	5	; () banked
  1649  001232  0E00               	movlw	low(1280)	;volatile
  1650  001234  6EEE               	movwf	postinc0
  1651  001236  0105               	movlb	5	; () banked
  1652  001238  0E05               	movlw	high(1280)	;volatile
  1653  00123A  6EED               	movwf	postdec0
  1654                           	line	1280
  1655                           ;usb_device.c: 1280: for(setup_cnt = 0; setup_cn
                                 t < sizeof(CTRL_TRF_SETUP); setup_cnt++)
  1656  00123C  0101               	movlb	1	; () banked
  1657  00123E  6F03               	movwf	(??_USBCtrlEPService+1+0)&0ffh
  1658  001240  0E00               	movlw	low(0)
  1659  001242  0101               	movlb	1	; () banked
  1660  001244  0101               	movlb	1	; () banked
  1661  001246  6F02               	movwf	((USBCtrlEPService@setup_cnt))&0ffh
  1662  001248  0101               	movlb	1	; () banked
  1663  00124A  5103               	movf	(??_USBCtrlEPService+1+0)&0ffh,w
  1664  00124C  0E07               	movlw	(08h-1)
  1665  00124E  0101               	movlb	1	; () banked
  1666  001250  0101               	movlb	1	; () banked
  1667  001252  6502               	cpfsgt	((USBCtrlEPService@setup_cnt))&0ffh
  1668  001254  EF2E  F009         	goto	u3171
  1669  001258  EF30  F009         	goto	u3170
  1670  00125C                     u3171:
  1671  00125C  EF32  F009         	goto	l553
  1672  001260                     u3170:
  1673  001260  EF55  F009         	goto	l552
  1674                           	line	1281
  1675                           	
  1676  001264                     l553:		; BSR set to: ?
  1677                           
  1678                           	line	1282
  1679                           ;usb_device.c: 1281: {
  1680                           ;usb_device.c: 1282: *(((BYTE*)&SetupPkt)+setup_
                                 cnt) = *(((BYTE*)&CtrlTrfData)+setup_cnt);
  1681  001264  0105               	movlb	5	; () banked
  1682  001266  0E20               	movlw	low(1312)	;volatile
  1683  001268  0101               	movlb	1	; () banked
  1684  00126A  0101               	movlb	1	; () banked
  1685  00126C  2502               	addwf	((USBCtrlEPService@setup_cnt))&0ffh,w
  1686  00126E  6EE9               	movwf	c:fsr0l
  1687  001270  6AEA               	clrf	1+c:fsr0l
  1688  001272  0105               	movlb	5	; () banked
  1689  001274  0E05               	movlw	high(1312)	;volatile
  1690  001276  22EA               	addwfc	1+c:fsr0l
  1691  001278  0105               	movlb	5	; () banked
  1692  00127A  0E00               	movlw	low(1280)	;volatile
  1693  00127C  0101               	movlb	1	; () banked
  1694  00127E  0101               	movlb	1	; () banked
  1695  001280  2502               	addwf	((USBCtrlEPService@setup_cnt))&0ffh,w
  1696  001282  6EE1               	movwf	c:fsr1l
  1697  001284  6AE2               	clrf	1+c:fsr1l
  1698  001286  0105               	movlb	5	; () banked
  1699  001288  0E05               	movlw	high(1280)	;volatile
  1700  00128A  22E2               	addwfc	1+c:fsr1l
  1701  00128C  CFEF FFE7          	movff	indf0,indf1
  1702                           	line	1280
  1703  001290  0101               	movlb	1	; () banked
  1704  001292  0101               	movlb	1	; () banked
  1705  001294  2B02               	incf	((USBCtrlEPService@setup_cnt))&0ffh
  1706  001296  0E07               	movlw	(08h-1)
  1707  001298  0101               	movlb	1	; () banked
  1708  00129A  0101               	movlb	1	; () banked
  1709  00129C  6502               	cpfsgt	((USBCtrlEPService@setup_cnt))&0ffh
  1710  00129E  EF53  F009         	goto	u3181
  1711  0012A2  EF55  F009         	goto	u3180
  1712  0012A6                     u3181:
  1713  0012A6  EF32  F009         	goto	l553
  1714  0012AA                     u3180:
  1715                           	
  1716  0012AA                     l554:		; BSR set to: ?
  1717                           
  1718                           	line	1284
  1719                           	
  1720  0012AA                     l552:		; BSR set to: ?
  1721                           
  1722                           	line	1287
  1723                           ;usb_device.c: 1283: }
  1724                           ;usb_device.c: 1284: }
  1725                           ;usb_device.c: 1287: USBCtrlTrfSetupHandler();
  1726  0012AA  EC2B  F00F         	call	_USBCtrlTrfSetupHandler	;wreg free
  1727                           	line	1288
  1728                           ;usb_device.c: 1288: }
  1729  0012AE  EF5B  F009         	goto	l556
  1730                           	line	1289
  1731                           	
  1732  0012B2                     l551:		; BSR set to: ?
  1733                           
  1734                           	line	1292
  1735                           ;usb_device.c: 1289: else
  1736                           ;usb_device.c: 1290: {
  1737                           ;usb_device.c: 1292: USBCtrlTrfOutHandler();
  1738  0012B2  EC6F  F010         	call	_USBCtrlTrfOutHandler	;wreg free
  1739                           	line	1293
  1740                           	
  1741  0012B6                     l556:		; BSR set to: ?
  1742                           
  1743                           	line	1294
  1744                           ;usb_device.c: 1293: }
  1745                           ;usb_device.c: 1294: }
  1746  0012B6  EF69  F009         	goto	l557
  1747                           	line	1295
  1748                           	
  1749  0012BA                     l550:		; BSR set to: ?
  1750                           
  1751                           ;usb_device.c: 1295: else if((USTATcopy & ~0x02)
                                  == 0x04)
  1752  0012BA  501B               	movf	((c:27)),c,w
  1753  0012BC  0BFD               	andlw	low(0FDh)
  1754  0012BE  0A04               	xorlw	04h
  1755  0012C0  A4D8               	btfss	status,2
  1756  0012C2  EF65  F009         	goto	u3191
  1757  0012C6  EF67  F009         	goto	u3190
  1758  0012CA                     u3191:
  1759  0012CA  EF69  F009         	goto	l557
  1760  0012CE                     u3190:
  1761                           	line	1299
  1762                           ;usb_device.c: 1296: {
  1763                           ;usb_device.c: 1299: USBCtrlTrfInHandler();
  1764  0012CE  ECA5  F00D         	call	_USBCtrlTrfInHandler	;wreg free
  1765                           	line	1300
  1766                           	
  1767  0012D2                     l558:		; BSR set to: ?
  1768                           
  1769                           	line	1302
  1770                           	
  1771  0012D2                     l557:		; BSR set to: ?
  1772                           
  1773                           ;usb_device.c: 1300: }
  1774                           ;usb_device.c: 1302: }
  1775  0012D2                     l549:
  1776                           			; BSR set to: ?
  1777                           
  1778  0012D2  0012               	return
  1779                           	opt stack 0
  1780                           GLOBAL __end_of_USBCtrlEPService
  1781  0012D4                     	__end_of_USBCtrlEPService:
  1782                           	FNSIZE	_USBCtrlEPService,3,0
  1783                           ; =============== function _USBCtrlEPService end
                                 s ============
  1784                           
  1785                           	signat	_USBCtrlEPService,88
  1786                           	global	_USBDeviceInit
  1787                           	global	??_USBDeviceInit
  1788                           	global	?_USBDeviceInit
  1789                           
  1790                           ; *************** function _USBDeviceInit ******
                                 ***********
  1791                           ; Defined at:
  1792                           ;		line 672 in file "X:\mplab\mini project\new u
                                 ntouched\USB Io board fimware source\usb_device.
                                 c"
  1793                           ; Parameters:
  1794                           ;		None
  1795                           ; Auto variables:
  1796                           ;		i           	       	type: unsigned char 
  1797                           ; Return value:
  1798                           ;		type: void 
  1799                           ;		size: 0
  1800                           ; Registers used:
  1801                           ;		wreg, fsr0l, fsr0h, status,2, status,0, prodl
                                 , prodh, cstack
  1802                           ; Tracked objects:
  1803                           ;		On entry : 0/0
  1804                           ;		On exit  : 0/0
  1805                           ;		Unchanged: 0/0
  1806                           ; Data sizes:
  1807                           ;		Autos:    1
  1808                           ;		Params:   0
  1809                           ;		Temp:     1
  1810                           ;		Total:    2
  1811                           ; This function calls:
  1812                           ;		_memset
  1813                           ; This function is called by:
  1814                           ;		_InitialiseSystem
  1815                           ;		_USBDeviceTasks
  1816                           ; This function uses a non-reentrant model
  1817                           ; 
  1818                                   psect   text7,class=CODE,space=0,reloc=2
  1819                           
  1820                           	opt lm
  1821                           	file	"X:\mplab\mini project\new untouched\USB I
                                 o board fimware source\usb_device.c"
  1822                           	line	672
  1823  000000                     	__size_of_USBDeviceInit	equ	__end_of_USBDeviceI
                                 nit-_USBDeviceInit
  1824                           ;stddef.h: 2: typedef int ptrdiff_t;
  1825                           ;stddef.h: 3: typedef unsigned size_t;
  1826                           ;stddef.h: 4: typedef unsigned short wchar_t;
  1827                           ;stddef.h: 13: extern int errno;
  1828                           ;GenericTypeDefs.h: 64: typedef enum _BOOL { FAL
                                 SE = 0, TRUE } BOOL;
  1829                           ;GenericTypeDefs.h: 65: typedef enum _BIT { CLEA
                                 R = 0, SET } BIT;
  1830                           ;GenericTypeDefs.h: 72: typedef signed int INT;
  1831                           ;GenericTypeDefs.h: 73: typedef signed char INT8
                                 ;
  1832                           ;GenericTypeDefs.h: 74: typedef signed short int
                                  INT16;
  1833                           ;GenericTypeDefs.h: 75: typedef signed long int 
                                 INT32;
  1834                           ;GenericTypeDefs.h: 79: typedef signed long long
                                  INT64;
  1835                           	
  1836  0012D4                     _USBDeviceInit:		; BSR set to: ?
  1837                           
  1838                           	opt stack 27
  1839                           	line	676
  1840                           ;usb_device.c: 673: BYTE i;
  1841                           ;usb_device.c: 676: UEIR = 0;;
  1842  0012D4  0E00               	movlw	low(0)
  1843  0012D6  6E6A               	movwf	((c:3946)),c	;volatile
  1844                           	line	679
  1845                           ;usb_device.c: 679: UIR = 0;;
  1846  0012D8  0E00               	movlw	low(0)
  1847  0012DA  6E68               	movwf	((c:3944)),c	;volatile
  1848                           	line	681
  1849                           ;usb_device.c: 681: { UCFG = 0x10 | 0x00 | 0x04 
                                 | 0x02; UEIE = 0x9F; UIE = 0x39 | 0x40 | 0x02; }
                                 ;
  1850  0012DC  0101               	movlb	1	; () banked
  1851  0012DE  6F03               	movwf	(??_USBDeviceInit+1+0)&0ffh
  1852  0012E0  0E16               	movlw	low(016h)
  1853  0012E2  6E6F               	movwf	((c:3951)),c
  1854  0012E4  0101               	movlb	1	; () banked
  1855  0012E6  5103               	movf	(??_USBDeviceInit+1+0)&0ffh,w
  1856  0012E8  0101               	movlb	1	; () banked
  1857  0012EA  6F03               	movwf	(??_USBDeviceInit+1+0)&0ffh
  1858  0012EC  0E9F               	movlw	low(09Fh)
  1859  0012EE  6E6B               	movwf	((c:3947)),c
  1860  0012F0  0101               	movlb	1	; () banked
  1861  0012F2  5103               	movf	(??_USBDeviceInit+1+0)&0ffh,w
  1862  0012F4  0101               	movlb	1	; () banked
  1863  0012F6  6F03               	movwf	(??_USBDeviceInit+1+0)&0ffh
  1864  0012F8  0E7B               	movlw	low(07Bh)
  1865  0012FA  6E69               	movwf	((c:3945)),c
  1866  0012FC  0101               	movlb	1	; () banked
  1867  0012FE  5103               	movf	(??_USBDeviceInit+1+0)&0ffh,w
  1868                           	line	690
  1869                           ;usb_device.c: 684: ;
  1870                           ;usb_device.c: 687: ;
  1871                           ;usb_device.c: 690: UCONbits.PPBRST = 1;
  1872  001300  8C6D               	bsf	((c:3949)),c,6	;volatile
  1873                           	line	693
  1874                           ;usb_device.c: 693: UADDR = 0x00;
  1875  001302  0101               	movlb	1	; () banked
  1876  001304  6F03               	movwf	(??_USBDeviceInit+1+0)&0ffh
  1877  001306  0E00               	movlw	low(0)
  1878  001308  6E6E               	movwf	((c:3950)),c
  1879  00130A  0101               	movlb	1	; () banked
  1880  00130C  5103               	movf	(??_USBDeviceInit+1+0)&0ffh,w
  1881                           	line	696
  1882                           ;usb_device.c: 696: memset((void*)&UEP1,0x00,(1-
                                 1));
  1883  00130E  0E00               	movlw	low(0)
  1884  001310  0101               	movlb	1	; () banked
  1885  001312  0101               	movlb	1	; () banked
  1886  001314  6F0C               	movwf	(0+(?_memset+04h))&0ffh
  1887  001316  0E00               	movlw	high(0)
  1888  001318  0101               	movlb	1	; () banked
  1889  00131A  6F0D               	movwf	(1+(?_memset+04h))&0ffh
  1890  00131C  0E00               	movlw	low(0)
  1891  00131E  0101               	movlb	1	; () banked
  1892  001320  0101               	movlb	1	; () banked
  1893  001322  6F0A               	movwf	(0+(?_memset+02h))&0ffh
  1894  001324  0E00               	movlw	high(0)
  1895  001326  0101               	movlb	1	; () banked
  1896  001328  6F0B               	movwf	(1+(?_memset+02h))&0ffh
  1897  00132A  0E71               	movlw	low((c:3953))	;volatile
  1898  00132C  0101               	movlb	1	; () banked
  1899  00132E  0101               	movlb	1	; () banked
  1900  001330  6F08               	movwf	((?_memset))&0ffh
  1901  001332  0E0F               	movlw	high((c:3953))	;volatile
  1902  001334  0101               	movlb	1	; () banked
  1903  001336  6F09               	movwf	((?_memset+1))&0ffh
  1904  001338  ECD0  F010         	call	_memset	;wreg free
  1905                           	line	699
  1906                           ;usb_device.c: 699: UCONbits.PPBRST = 0;
  1907  00133C  9C6D               	bcf	((c:3949)),c,6	;volatile
  1908                           	line	702
  1909                           ;usb_device.c: 702: for(i=0;i<(sizeof(BDT)/sizeo
                                 f(BDT_ENTRY));i++)
  1910  00133E  0101               	movlb	1	; () banked
  1911  001340  6F03               	movwf	(??_USBDeviceInit+1+0)&0ffh
  1912  001342  0E00               	movlw	low(0)
  1913  001344  0101               	movlb	1	; () banked
  1914  001346  0101               	movlb	1	; () banked
  1915  001348  6F02               	movwf	((USBDeviceInit@i))&0ffh
  1916  00134A  0101               	movlb	1	; () banked
  1917  00134C  5103               	movf	(??_USBDeviceInit+1+0)&0ffh,w
  1918  00134E  0E07               	movlw	(08h-1)
  1919  001350  0101               	movlb	1	; () banked
  1920  001352  0101               	movlb	1	; () banked
  1921  001354  6502               	cpfsgt	((USBDeviceInit@i))&0ffh
  1922  001356  EFAF  F009         	goto	u3281
  1923  00135A  EFB1  F009         	goto	u3280
  1924  00135E                     u3281:
  1925  00135E  EFB3  F009         	goto	l511
  1926  001362                     u3280:
  1927  001362  EFD6  F009         	goto	l512
  1928                           	line	703
  1929                           	
  1930  001366                     l511:		; BSR set to: ?
  1931                           
  1932                           	line	704
  1933                           ;usb_device.c: 703: {
  1934                           ;usb_device.c: 704: BDT[i].Val = 0x00;
  1935  001366  0101               	movlb	1	; () banked
  1936  001368  0101               	movlb	1	; () banked
  1937  00136A  5102               	movf	((USBDeviceInit@i))&0ffh,w
  1938  00136C  0D04               	mullw	04h
  1939  00136E  0104               	movlb	4	; () banked
  1940  001370  0E00               	movlw	low(1024)	;volatile
  1941  001372  24F3               	addwf	(prodl),c,w
  1942  001374  6EE9               	movwf	c:fsr0l
  1943  001376  6AEA               	clrf	1+c:fsr0l
  1944  001378  0104               	movlb	4	; () banked
  1945  00137A  0E04               	movlw	high(1024)	;volatile
  1946  00137C  22EA               	addwfc	1+c:fsr0l
  1947  00137E  0E00               	movlw	low(0)
  1948  001380  6EEE               	movwf	postinc0
  1949  001382  0E00               	movlw	high(0)
  1950  001384  6EEE               	movwf	postinc0
  1951  001386  0E00               	movlw	low highword(0)
  1952  001388  6EEE               	movwf	postinc0
  1953  00138A  0E00               	movlw	high highword(0)
  1954  00138C  6EED               	movwf	postdec0
  1955  00138E  52ED               	movf	postdec0
  1956  001390  52ED               	movf	postdec0
  1957                           	line	702
  1958  001392  0101               	movlb	1	; () banked
  1959  001394  0101               	movlb	1	; () banked
  1960  001396  2B02               	incf	((USBDeviceInit@i))&0ffh
  1961  001398  0E07               	movlw	(08h-1)
  1962  00139A  0101               	movlb	1	; () banked
  1963  00139C  0101               	movlb	1	; () banked
  1964  00139E  6502               	cpfsgt	((USBDeviceInit@i))&0ffh
  1965  0013A0  EFD4  F009         	goto	u3291
  1966  0013A4  EFD6  F009         	goto	u3290
  1967  0013A8                     u3291:
  1968  0013A8  EFB3  F009         	goto	l511
  1969  0013AC                     u3290:
  1970                           	
  1971  0013AC                     l512:		; BSR set to: ?
  1972                           
  1973                           	line	708
  1974                           ;usb_device.c: 705: }
  1975                           ;usb_device.c: 708: UEP0 = 0x06|0x10;
  1976  0013AC  0E16               	movlw	low(016h)
  1977  0013AE  6E70               	movwf	((c:3952)),c	;volatile
  1978                           	line	711
  1979                           ;usb_device.c: 711: while(UIRbits.TRNIF == 1)
  1980  0013B0  EFDB  F009         	goto	l514
  1981                           	
  1982  0013B4                     l515:		; BSR set to: ?
  1983                           
  1984                           	line	713
  1985                           ;usb_device.c: 712: {
  1986                           ;usb_device.c: 713: (UIR &= 0xF7);
  1987  0013B4  9668               	bcf	(0+(3/8)+(c:3944)),c,(3)&7	;volatile
  1988                           	line	714
  1989                           	
  1990  0013B6                     l514:		; BSR set to: ?
  1991                           
  1992                           	line	711
  1993                           	
  1994  0013B6  B668               	btfsc	((c:3944)),c,3	;volatile
  1995  0013B8  EFE0  F009         	goto	u3301
  1996  0013BC  EFE2  F009         	goto	u3300
  1997  0013C0                     u3301:
  1998  0013C0  EFDA  F009         	goto	l515
  1999  0013C4                     u3300:
  2000                           	
  2001  0013C4                     l516:		; BSR set to: ?
  2002                           
  2003                           	line	717
  2004                           ;usb_device.c: 714: }
  2005                           ;usb_device.c: 717: inPipes[0].info.Val = 0;
  2006  0013C4  0101               	movlb	1	; () banked
  2007  0013C6  6F03               	movwf	(??_USBDeviceInit+1+0)&0ffh
  2008  0013C8  0E00               	movlw	low(0)
  2009  0013CA  6E03               	movwf	(0+((c:0)+03h)),c
  2010  0013CC  0101               	movlb	1	; () banked
  2011  0013CE  5103               	movf	(??_USBDeviceInit+1+0)&0ffh,w
  2012                           	line	718
  2013                           ;usb_device.c: 718: outPipes[0].info.Val = 0;
  2014  0013D0  0101               	movlb	1	; () banked
  2015  0013D2  6F03               	movwf	(??_USBDeviceInit+1+0)&0ffh
  2016  0013D4  0E00               	movlw	low(0)
  2017  0013D6  6E09               	movwf	(0+((c:6)+03h)),c
  2018  0013D8  0101               	movlb	1	; () banked
  2019  0013DA  5103               	movf	(??_USBDeviceInit+1+0)&0ffh,w
  2020                           	line	719
  2021                           ;usb_device.c: 719: outPipes[0].wCount.Val = 0;
  2022  0013DC  0E00               	movlw	low(0)
  2023  0013DE  6E0A               	movwf	(0+((c:6)+04h)),c
  2024  0013E0  0E00               	movlw	high(0)
  2025  0013E2  6E0B               	movwf	(1+((c:6)+04h)),c
  2026                           	line	722
  2027                           ;usb_device.c: 722: PKTDIS = 0;
  2028  0013E4  986D               	bcf	c:(31596/8),(31596)&7	;volatile
  2029                           	line	725
  2030                           ;usb_device.c: 725: pBDTEntryIn[0] = (volatile B
                                 DT_ENTRY*)&BDT[2];
  2031  0013E6  0104               	movlb	4	; () banked
  2032  0013E8  0E08               	movlw	low(1024+08h)	;volatile
  2033  0013EA  6E0F               	movwf	((c:15)),c
  2034  0013EC  0104               	movlb	4	; () banked
  2035  0013EE  0E04               	movlw	high(1024+08h)	;volatile
  2036  0013F0  6E10               	movwf	((c:15+1)),c
  2037                           	line	728
  2038                           ;usb_device.c: 728: USBActiveConfiguration = 0;
  2039  0013F2  0101               	movlb	1	; () banked
  2040  0013F4  6F03               	movwf	(??_USBDeviceInit+1+0)&0ffh
  2041  0013F6  0E00               	movlw	low(0)
  2042  0013F8  6E1C               	movwf	((c:28)),c
  2043  0013FA  0101               	movlb	1	; () banked
  2044  0013FC  5103               	movf	(??_USBDeviceInit+1+0)&0ffh,w
  2045                           	line	731
  2046                           ;usb_device.c: 731: USBDeviceState = DETACHED_ST
                                 ATE;
  2047  0013FE  0101               	movlb	1	; () banked
  2048  001400  6F03               	movwf	(??_USBDeviceInit+1+0)&0ffh
  2049  001402  0E00               	movlw	low(0)
  2050  001404  6E1D               	movwf	((c:29)),c
  2051  001406  0101               	movlb	1	; () banked
  2052  001408  5103               	movf	(??_USBDeviceInit+1+0)&0ffh,w
  2053                           	line	732
  2054                           ;usb_device.c: 732: }
  2055  00140A                     l510:
  2056                           			; BSR set to: ?
  2057                           
  2058  00140A  0012               	return
  2059                           	opt stack 0
  2060                           GLOBAL __end_of_USBDeviceInit
  2061  00140C                     	__end_of_USBDeviceInit:
  2062                           	FNSIZE	_USBDeviceInit,2,0
  2063                           ; =============== function _USBDeviceInit ends =
                                 ===========
  2064                           
  2065                           	signat	_USBDeviceInit,88
  2066                           	global	_USBWakeFromSuspend
  2067                           	global	??_USBWakeFromSuspend
  2068                           	global	?_USBWakeFromSuspend
  2069                           
  2070                           ; *************** function _USBWakeFromSuspend *
                                 ****************
  2071                           ; Defined at:
  2072                           ;		line 1186 in file "X:\mplab\mini project\new 
                                 untouched\USB Io board fimware source\usb_device
                                 .c"
  2073                           ; Parameters:
  2074                           ;		None
  2075                           ; Auto variables:
  2076                           ;		None
  2077                           ; Return value:
  2078                           ;		type: void 
  2079                           ;		size: 0
  2080                           ; Registers used:
  2081                           ;		wreg, fsr0l, fsr0h, status,2, status,0, prodl
                                 , prodh, cstack
  2082                           ; Tracked objects:
  2083                           ;		On entry : 0/0
  2084                           ;		On exit  : 0/0
  2085                           ;		Unchanged: 0/0
  2086                           ; Data sizes:
  2087                           ;		Autos:    0
  2088                           ;		Params:   0
  2089                           ;		Temp:     0
  2090                           ;		Total:    0
  2091                           ; This function calls:
  2092                           ;		_USER_USB_CALLBACK_EVENT_HANDLER
  2093                           ; This function is called by:
  2094                           ;		_USBDeviceTasks
  2095                           ; This function uses a non-reentrant model
  2096                           ; 
  2097                                   psect   text8,class=CODE,space=0,reloc=2
  2098                           
  2099                           	opt lm
  2100                           	file	"X:\mplab\mini project\new untouched\USB I
                                 o board fimware source\usb_device.c"
  2101                           	line	1186
  2102  000000                     	__size_of_USBWakeFromSuspend	equ	__end_of_USBWa
                                 keFromSuspend-_USBWakeFromSuspend
  2103                           ;usb_device.c: 1185: void USBWakeFromSuspend(voi
                                 d)
  2104                           ;usb_device.c: 1186: {
  2105                           	
  2106  0021E8                     _USBWakeFromSuspend:		; BSR set to: ?
  2107                           
  2108                           	opt stack 27
  2109                           	line	1191
  2110                           ;usb_device.c: 1191: USER_USB_CALLBACK_EVENT_HAN
                                 DLER(EVENT_RESUME,0,0);
  2111  0021E8  0E00               	movlw	low(0)
  2112  0021EA  0101               	movlb	1	; () banked
  2113  0021EC  0101               	movlb	1	; () banked
  2114  0021EE  6F0C               	movwf	(0+(?_USER_USB_CALLBACK_EVENT_HANDLER+04h
                                 ))&0ffh
  2115  0021F0  0E00               	movlw	high(0)
  2116  0021F2  0101               	movlb	1	; () banked
  2117  0021F4  6F0D               	movwf	(1+(?_USER_USB_CALLBACK_EVENT_HANDLER+04h
                                 ))&0ffh
  2118  0021F6  0E00               	movlw	low(0)
  2119  0021F8  0101               	movlb	1	; () banked
  2120  0021FA  0101               	movlb	1	; () banked
  2121  0021FC  6F0A               	movwf	(0+(?_USER_USB_CALLBACK_EVENT_HANDLER+02h
                                 ))&0ffh
  2122  0021FE  0E00               	movlw	high(0)
  2123  002200  0101               	movlb	1	; () banked
  2124  002202  6F0B               	movwf	(1+(?_USER_USB_CALLBACK_EVENT_HANDLER+02h
                                 ))&0ffh
  2125  002204  0E74               	movlw	low(074h)
  2126  002206  0101               	movlb	1	; () banked
  2127  002208  0101               	movlb	1	; () banked
  2128  00220A  6F08               	movwf	((?_USER_USB_CALLBACK_EVENT_HANDLER))&0ff
                                 h
  2129  00220C  0E00               	movlw	high(074h)
  2130  00220E  0101               	movlb	1	; () banked
  2131  002210  6F09               	movwf	((?_USER_USB_CALLBACK_EVENT_HANDLER+1))&0
                                 ffh
  2132  002212  ECDC  F00E         	call	_USER_USB_CALLBACK_EVENT_HANDLER	;wreg fre
                                 e
  2133                           	line	1198
  2134                           ;usb_device.c: 1198: UCONbits.SUSPND = 0;
  2135  002216  926D               	bcf	((c:3949)),c,1	;volatile
  2136                           	line	1203
  2137                           ;usb_device.c: 1203: UIEbits.ACTVIE = 0;
  2138  002218  9469               	bcf	((c:3945)),c,2	;volatile
  2139                           	line	1221
  2140                           ;usb_device.c: 1221: while(UIRbits.ACTVIF)
  2141  00221A  EF10  F011         	goto	l546
  2142                           	
  2143  00221E                     l547:		; BSR set to: ?
  2144                           
  2145                           	line	1224
  2146                           ;usb_device.c: 1223: {
  2147                           ;usb_device.c: 1224: (UIR &= 0xFB);
  2148  00221E  9468               	bcf	(0+(2/8)+(c:3944)),c,(2)&7	;volatile
  2149                           	line	1225
  2150                           	
  2151  002220                     l546:		; BSR set to: ?
  2152                           
  2153                           	line	1221
  2154                           	
  2155  002220  B468               	btfsc	((c:3944)),c,2	;volatile
  2156  002222  EF15  F011         	goto	u3121
  2157  002226  EF17  F011         	goto	u3120
  2158  00222A                     u3121:
  2159  00222A  EF0F  F011         	goto	l547
  2160  00222E                     u3120:
  2161                           	
  2162  00222E                     l548:		; BSR set to: ?
  2163                           
  2164                           	line	1227
  2165                           ;usb_device.c: 1225: }
  2166                           ;usb_device.c: 1227: }
  2167  00222E                     l545:
  2168                           			; BSR set to: ?
  2169                           
  2170  00222E  0012               	return
  2171                           	opt stack 0
  2172                           GLOBAL __end_of_USBWakeFromSuspend
  2173  002230                     	__end_of_USBWakeFromSuspend:
  2174                           	FNSIZE	_USBWakeFromSuspend,0,0
  2175                           ; =============== function _USBWakeFromSuspend e
                                 nds ============
  2176                           
  2177                           	signat	_USBWakeFromSuspend,88
  2178                           	global	_USBCtrlTrfOutHandler
  2179                           	global	??_USBCtrlTrfOutHandler
  2180                           	global	?_USBCtrlTrfOutHandler
  2181                           
  2182                           ; *************** function _USBCtrlTrfOutHandler
                                  *****************
  2183                           ; Defined at:
  2184                           ;		line 1392 in file "X:\mplab\mini project\new 
                                 untouched\USB Io board fimware source\usb_device
                                 .c"
  2185                           ; Parameters:
  2186                           ;		None
  2187                           ; Auto variables:
  2188                           ;		None
  2189                           ; Return value:
  2190                           ;		type: void 
  2191                           ;		size: 0
  2192                           ; Registers used:
  2193                           ;		wreg, fsr0l, fsr0h, fsr1l, fsr1h, status,2, s
                                 tatus,0, pclat, tosl, cstack
  2194                           ; Tracked objects:
  2195                           ;		On entry : 0/0
  2196                           ;		On exit  : 0/0
  2197                           ;		Unchanged: 0/0
  2198                           ; Data sizes:
  2199                           ;		Autos:    0
  2200                           ;		Params:   0
  2201                           ;		Temp:     1
  2202                           ;		Total:    1
  2203                           ; This function calls:
  2204                           ;		_USBCtrlTrfRxService
  2205                           ;		_USBPrepareForNextSetupTrf
  2206                           ; This function is called by:
  2207                           ;		_USBCtrlEPService
  2208                           ; This function uses a non-reentrant model
  2209                           ; 
  2210                                   psect   text9,class=CODE,space=0,reloc=2
  2211                           
  2212                           	opt lm
  2213                           	file	"X:\mplab\mini project\new untouched\USB I
                                 o board fimware source\usb_device.c"
  2214                           	line	1392
  2215  000000                     	__size_of_USBCtrlTrfOutHandler	equ	__end_of_USB
                                 CtrlTrfOutHandler-_USBCtrlTrfOutHandler
  2216                           ;usb_device.c: 1391: void USBCtrlTrfOutHandler(v
                                 oid)
  2217                           ;usb_device.c: 1392: {
  2218                           	
  2219  0020DE                     _USBCtrlTrfOutHandler:		; BSR set to: ?
  2220                           
  2221                           	opt stack 26
  2222                           	line	1393
  2223                           ;usb_device.c: 1393: if(controlTransferState == 
                                 2)
  2224  0020DE  5026               	movf	((c:38)),c,w
  2225  0020E0  0A02               	xorlw	2
  2226                           
  2227  0020E2  A4D8               	btfss	status,2
  2228  0020E4  EF76  F010         	goto	u3401
  2229  0020E8  EF78  F010         	goto	u3400
  2230  0020EC                     u3401:
  2231  0020EC  EF7C  F010         	goto	l562
  2232  0020F0                     u3400:
  2233                           	line	1395
  2234                           ;usb_device.c: 1394: {
  2235                           ;usb_device.c: 1395: USBCtrlTrfRxService();
  2236  0020F0  EC84  F006         	call	_USBCtrlTrfRxService	;wreg free
  2237                           	line	1396
  2238                           ;usb_device.c: 1396: }
  2239  0020F4  EFA7  F010         	goto	l563
  2240                           	line	1397
  2241                           	
  2242  0020F8                     l562:		; BSR set to: ?
  2243                           
  2244                           	line	1404
  2245                           ;usb_device.c: 1397: else
  2246                           ;usb_device.c: 1398: {
  2247                           ;usb_device.c: 1404: USBPrepareForNextSetupTrf()
                                 ;
  2248  0020F8  ECF7  F00F         	call	_USBPrepareForNextSetupTrf	;wreg free
  2249                           	line	1405
  2250                           ;usb_device.c: 1405: if(BothEP0OutUOWNsSet == FA
                                 LSE)
  2251  0020FC  6629               	tstfsz	((c:41)),c
  2252  0020FE  EF83  F010         	goto	u3411
  2253  002102  EF85  F010         	goto	u3410
  2254  002106                     u3411:
  2255  002106  EFA1  F010         	goto	l564
  2256  00210A                     u3410:
  2257                           	line	1407
  2258                           ;usb_device.c: 1406: {
  2259                           ;usb_device.c: 1407: pBDTEntryEP0OutNext->CNT = 
                                 8;
  2260  00210A  0E01               	movlw	low(01h)
  2261  00210C  2413               	addwf	((c:19)),c,w
  2262  00210E  6EE9               	movwf	c:fsr0l
  2263  002110  0E00               	movlw	high(01h)
  2264  002112  2014               	addwfc	((c:19+1)),c,w
  2265  002114  6EEA               	movwf	1+c:fsr0l
  2266  002116  0E08               	movlw	low(08h)
  2267  002118  6EEF               	movwf	indf0
  2268                           	line	1408
  2269                           ;usb_device.c: 1408: pBDTEntryEP0OutNext->ADR = 
                                 (BYTE*)&SetupPkt;
  2270  00211A  0E02               	movlw	low(02h)
  2271  00211C  2413               	addwf	((c:19)),c,w
  2272  00211E  6EE9               	movwf	c:fsr0l
  2273  002120  0E00               	movlw	high(02h)
  2274  002122  2014               	addwfc	((c:19+1)),c,w
  2275  002124  6EEA               	movwf	1+c:fsr0l
  2276  002126  0105               	movlb	5	; () banked
  2277  002128  0E00               	movlw	low(1280)	;volatile
  2278  00212A  6EEE               	movwf	postinc0
  2279  00212C  0105               	movlb	5	; () banked
  2280  00212E  0E05               	movlw	high(1280)	;volatile
  2281  002130  6EED               	movwf	postdec0
  2282                           	line	1409
  2283                           ;usb_device.c: 1409: pBDTEntryEP0OutNext->STAT.V
                                 al = 0x80|0x00|0x08|0x04;
  2284  002132  C013 FFE9          	movff	(c:19),fsr0l
  2285  002136  C014 FFEA          	movff	(c:19+1),fsr0h
  2286  00213A  0E8C               	movlw	low(08Ch)
  2287  00213C  6EEF               	movwf	indf0
  2288                           	line	1410
  2289                           ;usb_device.c: 1410: }
  2290  00213E  EFA7  F010         	goto	l563
  2291                           	line	1411
  2292                           	
  2293  002142                     l564:		; BSR set to: ?
  2294                           
  2295                           	line	1413
  2296                           ;usb_device.c: 1411: else
  2297                           ;usb_device.c: 1412: {
  2298                           ;usb_device.c: 1413: BothEP0OutUOWNsSet = FALSE;
  2299  002142  0101               	movlb	1	; () banked
  2300  002144  6F05               	movwf	(??_USBCtrlTrfOutHandler+0+0)&0ffh
  2301  002146  0E00               	movlw	low(0)
  2302  002148  6E29               	movwf	((c:41)),c
  2303  00214A  0101               	movlb	1	; () banked
  2304  00214C  5105               	movf	(??_USBCtrlTrfOutHandler+0+0)&0ffh,w
  2305                           	line	1414
  2306                           	
  2307  00214E                     l565:		; BSR set to: ?
  2308                           
  2309                           	line	1415
  2310                           	
  2311  00214E                     l563:		; BSR set to: ?
  2312                           
  2313                           	line	1416
  2314                           ;usb_device.c: 1414: }
  2315                           ;usb_device.c: 1415: }
  2316                           ;usb_device.c: 1416: }
  2317  00214E                     l561:
  2318                           			; BSR set to: ?
  2319                           
  2320  00214E  0012               	return
  2321                           	opt stack 0
  2322                           GLOBAL __end_of_USBCtrlTrfOutHandler
  2323  002150                     	__end_of_USBCtrlTrfOutHandler:
  2324                           	FNSIZE	_USBCtrlTrfOutHandler,1,0
  2325                           ; =============== function _USBCtrlTrfOutHandler
                                  ends ============
  2326                           
  2327                           	signat	_USBCtrlTrfOutHandler,88
  2328                           	global	_USBCtrlTrfSetupHandler
  2329                           	global	??_USBCtrlTrfSetupHandler
  2330                           	global	?_USBCtrlTrfSetupHandler
  2331                           
  2332                           ; *************** function _USBCtrlTrfSetupHandl
                                 er *****************
  2333                           ; Defined at:
  2334                           ;		line 1345 in file "X:\mplab\mini project\new 
                                 untouched\USB Io board fimware source\usb_device
                                 .c"
  2335                           ; Parameters:
  2336                           ;		None
  2337                           ; Auto variables:
  2338                           ;		None
  2339                           ; Return value:
  2340                           ;		type: void 
  2341                           ;		size: 0
  2342                           ; Registers used:
  2343                           ;		wreg, fsr0l, fsr0h, fsr1l, fsr1h, status,2, s
                                 tatus,0, tblptrl, tblptrh, tblptru, tablat, prod
                                 l, prodh, cstack
  2344                           ; Tracked objects:
  2345                           ;		On entry : 0/0
  2346                           ;		On exit  : 0/0
  2347                           ;		Unchanged: 0/0
  2348                           ; Data sizes:
  2349                           ;		Autos:    0
  2350                           ;		Params:   0
  2351                           ;		Temp:     1
  2352                           ;		Total:    1
  2353                           ; This function calls:
  2354                           ;		_USBCheckStdRequest
  2355                           ;		_USER_USB_CALLBACK_EVENT_HANDLER
  2356                           ;		_USBCtrlEPServiceComplete
  2357                           ; This function is called by:
  2358                           ;		_USBCtrlEPService
  2359                           ; This function uses a non-reentrant model
  2360                           ; 
  2361                                   psect   text10,class=CODE,space=0,reloc=
                                 2
  2362                           
  2363                           	opt lm
  2364                           	file	"X:\mplab\mini project\new untouched\USB I
                                 o board fimware source\usb_device.c"
  2365                           	line	1345
  2366  000000                     	__size_of_USBCtrlTrfSetupHandler	equ	__end_of_U
                                 SBCtrlTrfSetupHandler-_USBCtrlTrfSetupHandler
  2367                           ;usb_device.c: 1344: void USBCtrlTrfSetupHandler
                                 (void)
  2368                           ;usb_device.c: 1345: {
  2369                           	
  2370  001E56                     _USBCtrlTrfSetupHandler:		; BSR set to: ?
  2371                           
  2372                           	opt stack 26
  2373                           	line	1347
  2374                           ;usb_device.c: 1347: if(pBDTEntryIn[0]->STAT.UOW
                                 N != 0)
  2375  001E56  C00F FFE9          	movff	(c:15),fsr0l
  2376  001E5A  C010 FFEA          	movff	(c:15+1),fsr0h
  2377  001E5E  50EF               	movf	indf0,w
  2378  001E60  0101               	movlb	1	; () banked
  2379  001E62  6F05               	movwf	(??_USBCtrlTrfSetupHandler+0+0)&0ffh
  2380  001E64  0101               	movlb	1	; () banked
  2381                           	
  2382  001E66  AF05               	btfss	((??_USBCtrlTrfSetupHandler+0+0))&0ffh,7
  2383  001E68  EF38  F00F         	goto	u3131
  2384  001E6C  EF3A  F00F         	goto	u3130
  2385  001E70                     u3131:
  2386  001E70  EF40  F00F         	goto	l560
  2387  001E74                     u3130:
  2388                           	line	1351
  2389                           ;usb_device.c: 1348: {
  2390                           ;usb_device.c: 1351: pBDTEntryIn[0]->STAT.Val = 
                                 0x00;
  2391  001E74  C00F FFE9          	movff	(c:15),fsr0l
  2392  001E78  C010 FFEA          	movff	(c:15+1),fsr0h
  2393  001E7C  0E00               	movlw	low(0)
  2394  001E7E  6EEF               	movwf	indf0
  2395                           	line	1352
  2396                           	
  2397  001E80                     l560:		; BSR set to: ?
  2398                           
  2399                           	line	1355
  2400                           ;usb_device.c: 1352: }
  2401                           ;usb_device.c: 1355: shortPacketStatus = 0;
  2402  001E80  0101               	movlb	1	; () banked
  2403  001E82  6F05               	movwf	(??_USBCtrlTrfSetupHandler+0+0)&0ffh
  2404  001E84  0E00               	movlw	low(0)
  2405  001E86  6E25               	movwf	((c:37)),c
  2406  001E88  0101               	movlb	1	; () banked
  2407  001E8A  5105               	movf	(??_USBCtrlTrfSetupHandler+0+0)&0ffh,w
  2408                           	line	1358
  2409                           ;usb_device.c: 1358: controlTransferState = 0;
  2410  001E8C  0101               	movlb	1	; () banked
  2411  001E8E  6F05               	movwf	(??_USBCtrlTrfSetupHandler+0+0)&0ffh
  2412  001E90  0E00               	movlw	low(0)
  2413  001E92  6E26               	movwf	((c:38)),c
  2414  001E94  0101               	movlb	1	; () banked
  2415  001E96  5105               	movf	(??_USBCtrlTrfSetupHandler+0+0)&0ffh,w
  2416                           	line	1360
  2417                           ;usb_device.c: 1360: inPipes[0].wCount.Val = 0;
  2418  001E98  0E00               	movlw	low(0)
  2419  001E9A  6E04               	movwf	(0+((c:0)+04h)),c
  2420  001E9C  0E00               	movlw	high(0)
  2421  001E9E  6E05               	movwf	(1+((c:0)+04h)),c
  2422                           	line	1361
  2423                           ;usb_device.c: 1361: inPipes[0].info.Val = 0;
  2424  001EA0  0101               	movlb	1	; () banked
  2425  001EA2  6F05               	movwf	(??_USBCtrlTrfSetupHandler+0+0)&0ffh
  2426  001EA4  0E00               	movlw	low(0)
  2427  001EA6  6E03               	movwf	(0+((c:0)+03h)),c
  2428  001EA8  0101               	movlb	1	; () banked
  2429  001EAA  5105               	movf	(??_USBCtrlTrfSetupHandler+0+0)&0ffh,w
  2430                           	line	1364
  2431                           ;usb_device.c: 1364: USBCheckStdRequest();
  2432  001EAC  ECA0  F00A         	call	_USBCheckStdRequest	;wreg free
  2433                           	line	1365
  2434                           ;usb_device.c: 1365: USER_USB_CALLBACK_EVENT_HAN
                                 DLER(EVENT_EP0_REQUEST,0,0);
  2435  001EB0  0E00               	movlw	low(0)
  2436  001EB2  0101               	movlb	1	; () banked
  2437  001EB4  0101               	movlb	1	; () banked
  2438  001EB6  6F0C               	movwf	(0+(?_USER_USB_CALLBACK_EVENT_HANDLER+04h
                                 ))&0ffh
  2439  001EB8  0E00               	movlw	high(0)
  2440  001EBA  0101               	movlb	1	; () banked
  2441  001EBC  6F0D               	movwf	(1+(?_USER_USB_CALLBACK_EVENT_HANDLER+04h
                                 ))&0ffh
  2442  001EBE  0E00               	movlw	low(0)
  2443  001EC0  0101               	movlb	1	; () banked
  2444  001EC2  0101               	movlb	1	; () banked
  2445  001EC4  6F0A               	movwf	(0+(?_USER_USB_CALLBACK_EVENT_HANDLER+02h
                                 ))&0ffh
  2446  001EC6  0E00               	movlw	high(0)
  2447  001EC8  0101               	movlb	1	; () banked
  2448  001ECA  6F0B               	movwf	(1+(?_USER_USB_CALLBACK_EVENT_HANDLER+02h
                                 ))&0ffh
  2449  001ECC  0E03               	movlw	low(03h)
  2450  001ECE  0101               	movlb	1	; () banked
  2451  001ED0  0101               	movlb	1	; () banked
  2452  001ED2  6F08               	movwf	((?_USER_USB_CALLBACK_EVENT_HANDLER))&0ff
                                 h
  2453  001ED4  0E00               	movlw	high(03h)
  2454  001ED6  0101               	movlb	1	; () banked
  2455  001ED8  6F09               	movwf	((?_USER_USB_CALLBACK_EVENT_HANDLER+1))&0
                                 ffh
  2456  001EDA  ECDC  F00E         	call	_USER_USB_CALLBACK_EVENT_HANDLER	;wreg fre
                                 e
  2457                           	line	1368
  2458                           ;usb_device.c: 1368: USBCtrlEPServiceComplete();
  2459  001EDE  ECD1  F003         	call	_USBCtrlEPServiceComplete	;wreg free
  2460                           	line	1370
  2461                           ;usb_device.c: 1370: }
  2462  001EE2                     l559:
  2463                           			; BSR set to: ?
  2464                           
  2465  001EE2  0012               	return
  2466                           	opt stack 0
  2467                           GLOBAL __end_of_USBCtrlTrfSetupHandler
  2468  001EE4                     	__end_of_USBCtrlTrfSetupHandler:
  2469                           	FNSIZE	_USBCtrlTrfSetupHandler,1,0
  2470                           ; =============== function _USBCtrlTrfSetupHandl
                                 er ends ============
  2471                           
  2472                           	signat	_USBCtrlTrfSetupHandler,88
  2473                           	global	_USBCtrlTrfInHandler
  2474                           	global	??_USBCtrlTrfInHandler
  2475                           	global	?_USBCtrlTrfInHandler
  2476                           
  2477                           ; *************** function _USBCtrlTrfInHandler 
                                 *****************
  2478                           ; Defined at:
  2479                           ;		line 1442 in file "X:\mplab\mini project\new 
                                 untouched\USB Io board fimware source\usb_device
                                 .c"
  2480                           ; Parameters:
  2481                           ;		None
  2482                           ; Auto variables:
  2483                           ;		lastDTS     	       	type: unsigned char 
  2484                           ; Return value:
  2485                           ;		type: void 
  2486                           ;		size: 0
  2487                           ; Registers used:
  2488                           ;		wreg, fsr0l, fsr0h, fsr1l, fsr1h, status,2, s
                                 tatus,0, pclat, tosl, tblptrl, tblptrh, tblptru,
                                  tablat, cstack
  2489                           ; Tracked objects:
  2490                           ;		On entry : 0/0
  2491                           ;		On exit  : 0/0
  2492                           ;		Unchanged: 0/0
  2493                           ; Data sizes:
  2494                           ;		Autos:    1
  2495                           ;		Params:   0
  2496                           ;		Temp:     1
  2497                           ;		Total:    2
  2498                           ; This function calls:
  2499                           ;		_USBCtrlTrfTxService
  2500                           ;		_USBPrepareForNextSetupTrf
  2501                           ; This function is called by:
  2502                           ;		_USBCtrlEPService
  2503                           ; This function uses a non-reentrant model
  2504                           ; 
  2505                                   psect   text11,class=CODE,space=0,reloc=
                                 2
  2506                           
  2507                           	opt lm
  2508                           	file	"X:\mplab\mini project\new untouched\USB I
                                 o board fimware source\usb_device.c"
  2509                           	line	1442
  2510  000000                     	__size_of_USBCtrlTrfInHandler	equ	__end_of_USBC
                                 trlTrfInHandler-_USBCtrlTrfInHandler
  2511                           ;usb_device.c: 1441: void USBCtrlTrfInHandler(vo
                                 id)
  2512                           ;usb_device.c: 1442: {
  2513                           	
  2514  001B4A                     _USBCtrlTrfInHandler:		; BSR set to: ?
  2515                           
  2516                           	opt stack 26
  2517                           	line	1445
  2518                           ;usb_device.c: 1443: BYTE lastDTS;
  2519                           ;usb_device.c: 1445: lastDTS = pBDTEntryIn[0]->S
                                 TAT.DTS;
  2520  001B4A  C00F FFE9          	movff	(c:15),fsr0l
  2521  001B4E  C010 FFEA          	movff	(c:15+1),fsr0h
  2522  001B52  38EF               	swapf	(indf0)&0ffh,w
  2523  001B54  32E8               	rrcf	wreg,f
  2524  001B56  32E8               	rrcf	wreg,f
  2525  001B58  0B01               	andlw	(1<<1)-1
  2526  001B5A  0101               	movlb	1	; () banked
  2527  001B5C  0101               	movlb	1	; () banked
  2528  001B5E  6F05               	movwf	((USBCtrlTrfInHandler@lastDTS))&0ffh
  2529                           	line	1448
  2530                           ;usb_device.c: 1448: ((BYTE_VAL*)&pBDTEntryIn[0]
                                 )->Val ^= 0x0004;
  2531  001B60  0E04               	movlw	(04h)&0ffh
  2532  001B62  1A0F               	xorwf	((c:15)),c
  2533                           	line	1451
  2534                           ;usb_device.c: 1451: if(USBDeviceState == ADR_PE
                                 NDING_STATE)
  2535  001B64  501D               	movf	((c:29)),c,w
  2536  001B66  0A08               	xorlw	8
  2537                           
  2538  001B68  A4D8               	btfss	status,2
  2539  001B6A  EFB9  F00D         	goto	u3351
  2540  001B6E  EFBB  F00D         	goto	u3350
  2541  001B72                     u3351:
  2542  001B72  EFD3  F00D         	goto	l567
  2543  001B76                     u3350:
  2544                           	line	1453
  2545                           ;usb_device.c: 1452: {
  2546                           ;usb_device.c: 1453: UADDR = SetupPkt.bDevADR.Va
                                 l;
  2547  001B76  C502 FF6E          	movff	0+(1280+02h),(c:3950)	;volatile
  2548                           	line	1454
  2549                           ;usb_device.c: 1454: if(UADDR > 0)
  2550  001B7A  506E               	movf	((c:3950)),c,w
  2551  001B7C  B4D8               	btfsc	status,2
  2552  001B7E  EFC3  F00D         	goto	u3361
  2553  001B82  EFC5  F00D         	goto	u3360
  2554  001B86                     u3361:
  2555  001B86  EFCD  F00D         	goto	l568
  2556  001B8A                     u3360:
  2557                           	line	1456
  2558                           ;usb_device.c: 1455: {
  2559                           ;usb_device.c: 1456: USBDeviceState=ADDRESS_STAT
                                 E;
  2560  001B8A  0101               	movlb	1	; () banked
  2561  001B8C  6F06               	movwf	(??_USBCtrlTrfInHandler+1+0)&0ffh
  2562  001B8E  0E10               	movlw	low(010h)
  2563  001B90  6E1D               	movwf	((c:29)),c
  2564  001B92  0101               	movlb	1	; () banked
  2565  001B94  5106               	movf	(??_USBCtrlTrfInHandler+1+0)&0ffh,w
  2566                           	line	1457
  2567                           ;usb_device.c: 1457: }
  2568  001B96  EFD3  F00D         	goto	l567
  2569                           	line	1458
  2570                           	
  2571  001B9A                     l568:		; BSR set to: ?
  2572                           
  2573                           	line	1460
  2574                           ;usb_device.c: 1458: else
  2575                           ;usb_device.c: 1459: {
  2576                           ;usb_device.c: 1460: USBDeviceState=DEFAULT_STAT
                                 E;
  2577  001B9A  0101               	movlb	1	; () banked
  2578  001B9C  6F06               	movwf	(??_USBCtrlTrfInHandler+1+0)&0ffh
  2579  001B9E  0E04               	movlw	low(04h)
  2580  001BA0  6E1D               	movwf	((c:29)),c
  2581  001BA2  0101               	movlb	1	; () banked
  2582  001BA4  5106               	movf	(??_USBCtrlTrfInHandler+1+0)&0ffh,w
  2583                           	line	1461
  2584                           	
  2585  001BA6                     l569:		; BSR set to: ?
  2586                           
  2587                           	line	1462
  2588                           	
  2589  001BA6                     l567:		; BSR set to: ?
  2590                           
  2591                           	line	1465
  2592                           ;usb_device.c: 1461: }
  2593                           ;usb_device.c: 1462: }
  2594                           ;usb_device.c: 1465: if(controlTransferState == 
                                 1)
  2595  001BA6  0426               	decf	((c:38)),c,w
  2596                           
  2597  001BA8  A4D8               	btfss	status,2
  2598  001BAA  EFD9  F00D         	goto	u3371
  2599  001BAE  EFDB  F00D         	goto	u3370
  2600  001BB2                     u3371:
  2601  001BB2  EF13  F00E         	goto	l570
  2602  001BB6                     u3370:
  2603                           	line	1467
  2604                           ;usb_device.c: 1466: {
  2605                           ;usb_device.c: 1467: pBDTEntryIn[0]->ADR = (BYTE
                                  *)CtrlTrfData;
  2606  001BB6  0E02               	movlw	low(02h)
  2607  001BB8  240F               	addwf	((c:15)),c,w
  2608  001BBA  6EE9               	movwf	c:fsr0l
  2609  001BBC  0E00               	movlw	high(02h)
  2610  001BBE  2010               	addwfc	((c:15+1)),c,w
  2611  001BC0  6EEA               	movwf	1+c:fsr0l
  2612  001BC2  0105               	movlb	5	; () banked
  2613  001BC4  0E20               	movlw	low(1312)	;volatile
  2614  001BC6  6EEE               	movwf	postinc0
  2615  001BC8  0105               	movlb	5	; () banked
  2616  001BCA  0E05               	movlw	high(1312)	;volatile
  2617  001BCC  6EED               	movwf	postdec0
  2618                           	line	1468
  2619                           ;usb_device.c: 1468: USBCtrlTrfTxService();
  2620  001BCE  EC47  F007         	call	_USBCtrlTrfTxService	;wreg free
  2621                           	line	1471
  2622                           ;usb_device.c: 1471: if(shortPacketStatus == 2)
  2623  001BD2  5025               	movf	((c:37)),c,w
  2624  001BD4  0A02               	xorlw	2
  2625                           
  2626  001BD6  A4D8               	btfss	status,2
  2627  001BD8  EFF0  F00D         	goto	u3381
  2628  001BDC  EFF2  F00D         	goto	u3380
  2629  001BE0                     u3381:
  2630  001BE0  EFFA  F00D         	goto	l571
  2631  001BE4                     u3380:
  2632                           	line	1475
  2633                           ;usb_device.c: 1472: {
  2634                           ;usb_device.c: 1475: pBDTEntryIn[0]->STAT.Val = 
                                 0x80|0x04;
  2635  001BE4  C00F FFE9          	movff	(c:15),fsr0l
  2636  001BE8  C010 FFEA          	movff	(c:15+1),fsr0h
  2637  001BEC  0E84               	movlw	low(084h)
  2638  001BEE  6EEF               	movwf	indf0
  2639                           	line	1476
  2640                           ;usb_device.c: 1476: }
  2641  001BF0  EF11  F00E         	goto	l572
  2642                           	line	1477
  2643                           	
  2644  001BF4                     l571:		; BSR set to: ?
  2645                           
  2646                           	line	1479
  2647                           ;usb_device.c: 1477: else
  2648                           ;usb_device.c: 1478: {
  2649                           ;usb_device.c: 1479: if(lastDTS == 0)
  2650  001BF4  0101               	movlb	1	; () banked
  2651  001BF6  0101               	movlb	1	; () banked
  2652  001BF8  6705               	tstfsz	((USBCtrlTrfInHandler@lastDTS))&0ffh
  2653  001BFA  EF01  F00E         	goto	u3391
  2654  001BFE  EF03  F00E         	goto	u3390
  2655  001C02                     u3391:
  2656  001C02  EF0B  F00E         	goto	l573
  2657  001C06                     u3390:
  2658                           	line	1481
  2659                           ;usb_device.c: 1480: {
  2660                           ;usb_device.c: 1481: pBDTEntryIn[0]->STAT.Val = 
                                 0x80|0x40|0x08;
  2661  001C06  C00F FFE9          	movff	(c:15),fsr0l
  2662  001C0A  C010 FFEA          	movff	(c:15+1),fsr0h
  2663  001C0E  0EC8               	movlw	low(0C8h)
  2664  001C10  6EEF               	movwf	indf0
  2665                           	line	1482
  2666                           ;usb_device.c: 1482: }
  2667  001C12  EF11  F00E         	goto	l572
  2668                           	line	1483
  2669                           	
  2670  001C16                     l573:		; BSR set to: ?
  2671                           
  2672                           	line	1485
  2673                           ;usb_device.c: 1483: else
  2674                           ;usb_device.c: 1484: {
  2675                           ;usb_device.c: 1485: pBDTEntryIn[0]->STAT.Val = 
                                 0x80|0x00|0x08;
  2676  001C16  C00F FFE9          	movff	(c:15),fsr0l
  2677  001C1A  C010 FFEA          	movff	(c:15+1),fsr0h
  2678  001C1E  0E88               	movlw	low(088h)
  2679  001C20  6EEF               	movwf	indf0
  2680                           	line	1486
  2681                           	
  2682  001C22                     l574:		; BSR set to: ?
  2683                           
  2684                           	line	1487
  2685                           	
  2686  001C22                     l572:		; BSR set to: ?
  2687                           
  2688                           	line	1488
  2689                           ;usb_device.c: 1486: }
  2690                           ;usb_device.c: 1487: }
  2691                           ;usb_device.c: 1488: }
  2692  001C22  EF15  F00E         	goto	l575
  2693                           	line	1489
  2694                           	
  2695  001C26                     l570:		; BSR set to: ?
  2696                           
  2697                           	line	1491
  2698                           ;usb_device.c: 1489: else
  2699                           ;usb_device.c: 1490: {
  2700                           ;usb_device.c: 1491: USBPrepareForNextSetupTrf()
                                 ;
  2701  001C26  ECF7  F00F         	call	_USBPrepareForNextSetupTrf	;wreg free
  2702                           	line	1492
  2703                           	
  2704  001C2A                     l575:		; BSR set to: ?
  2705                           
  2706                           	line	1494
  2707                           ;usb_device.c: 1492: }
  2708                           ;usb_device.c: 1494: }
  2709  001C2A                     l566:
  2710                           			; BSR set to: ?
  2711                           
  2712  001C2A  0012               	return
  2713                           	opt stack 0
  2714                           GLOBAL __end_of_USBCtrlTrfInHandler
  2715  001C2C                     	__end_of_USBCtrlTrfInHandler:
  2716                           	FNSIZE	_USBCtrlTrfInHandler,2,0
  2717                           ; =============== function _USBCtrlTrfInHandler 
                                 ends ============
  2718                           
  2719                           	signat	_USBCtrlTrfInHandler,88
  2720                           	global	_USBPrepareForNextSetupTrf
  2721                           	global	??_USBPrepareForNextSetupTrf
  2722                           	global	?_USBPrepareForNextSetupTrf
  2723                           
  2724                           ; *************** function _USBPrepareForNextSet
                                 upTrf *****************
  2725                           ; Defined at:
  2726                           ;		line 1514 in file "X:\mplab\mini project\new 
                                 untouched\USB Io board fimware source\usb_device
                                 .c"
  2727                           ; Parameters:
  2728                           ;		None
  2729                           ; Auto variables:
  2730                           ;		p           	       	type: PTR struct __BDT; 
                                 Largest target is 1023
  2731                           ;		 -> RAM(1023), 
  2732                           ; Return value:
  2733                           ;		type: void 
  2734                           ;		size: 0
  2735                           ; Registers used:
  2736                           ;		wreg, fsr0l, fsr0h, status,2, status,0, pclat
                                 , tosl, cstack
  2737                           ; Tracked objects:
  2738                           ;		On entry : 0/0
  2739                           ;		On exit  : 0/0
  2740                           ;		Unchanged: 0/0
  2741                           ; Data sizes:
  2742                           ;		Autos:    2
  2743                           ;		Params:   0
  2744                           ;		Temp:     1
  2745                           ;		Total:    3
  2746                           ; This function calls:
  2747                           ;		Nothing
  2748                           ; This function is called by:
  2749                           ;		_USBCtrlTrfOutHandler
  2750                           ;		_USBCtrlTrfInHandler
  2751                           ; This function uses a non-reentrant model
  2752                           ; 
  2753                                   psect   text12,class=CODE,space=0,reloc=
                                 2
  2754                           
  2755                           	opt lm
  2756                           	file	"X:\mplab\mini project\new untouched\USB I
                                 o board fimware source\usb_device.c"
  2757                           	line	1514
  2758  000000                     	__size_of_USBPrepareForNextSetupTrf	equ	__end_o
                                 f_USBPrepareForNextSetupTrf-_USBPrepareForNextSe
                                 tupTrf
  2759                           ;usb_device.c: 1513: void USBPrepareForNextSetup
                                 Trf(void)
  2760                           ;usb_device.c: 1514: {
  2761                           	
  2762  001FEE                     _USBPrepareForNextSetupTrf:		; BSR set to: ?
  2763                           
  2764                           	opt stack 25
  2765                           	line	1515
  2766                           ;usb_device.c: 1515: controlTransferState = 0;
  2767  001FEE  0101               	movlb	1	; () banked
  2768  001FF0  6F09               	movwf	(??_USBPrepareForNextSetupTrf+2+0)&0ffh
  2769  001FF2  0E00               	movlw	low(0)
  2770  001FF4  6E26               	movwf	((c:38)),c
  2771  001FF6  0101               	movlb	1	; () banked
  2772  001FF8  5109               	movf	(??_USBPrepareForNextSetupTrf+2+0)&0ffh,w
  2773                           	line	1522
  2774                           ;usb_device.c: 1522: pBDTEntryIn[0]->STAT.Val = 
                                 0x00;
  2775  001FFA  C00F FFE9          	movff	(c:15),fsr0l
  2776  001FFE  C010 FFEA          	movff	(c:15+1),fsr0h
  2777  002002  0E00               	movlw	low(0)
  2778  002004  6EEF               	movwf	indf0
  2779                           	line	1526
  2780                           ;usb_device.c: 1523: {
  2781                           ;usb_device.c: 1524: BDT_ENTRY* p;
  2782                           ;usb_device.c: 1526: p = (BDT_ENTRY*)(((unsigned
                                  int)pBDTEntryIn[0])^0x0004);
  2783  002006  0E04               	movlw	04h
  2784  002008  180F               	xorwf	((c:15)),c,w
  2785  00200A  0101               	movlb	1	; () banked
  2786                           	
  2787  00200C  0101               	movlb	1	; () banked
  2788  00200E  6F07               	movwf	((USBPrepareForNextSetupTrf@p))&0ffh
  2789  002010  5010               	movf	((c:15+1)),c,w
  2790  002012  0101               	movlb	1	; () banked
  2791  002014  6F08               	movwf	1+((USBPrepareForNextSetupTrf@p))&0ffh
  2792                           	line	1527
  2793                           ;usb_device.c: 1527: p->STAT.Val = 0x00;
  2794  002016  C107  FFE9         	movff	(USBPrepareForNextSetupTrf@p),fsr0l
  2795  00201A  C108  FFEA         	movff	(USBPrepareForNextSetupTrf@p+1),fsr0h
  2796  00201E  0E00               	movlw	low(0)
  2797  002020  6EEF               	movwf	indf0
  2798                           	line	1533
  2799                           ;usb_device.c: 1528: }
  2800                           ;usb_device.c: 1533: if(outPipes[0].info.bits.bu
                                 sy == 1)
  2801                           	
  2802  002022  AE09               	btfss	(0+((c:6)+03h)),c,7
  2803  002024  EF16  F010         	goto	u3421
  2804  002028  EF18  F010         	goto	u3420
  2805  00202C                     u3421:
  2806  00202C  EF34  F010         	goto	l577
  2807  002030                     u3420:
  2808                           	line	1535
  2809                           ;usb_device.c: 1534: {
  2810                           ;usb_device.c: 1535: if(outPipes[0].pFunc != (0)
                                 )
  2811  002030  EE00 F00C          	lfsr	0,(c:6)+06h
  2812  002034  50EE               	movf	postinc0,w
  2813  002036  10EE               	iorwf	postinc0,w
  2814  002038  10ED               	iorwf	postdec0,w
  2815  00203A  B4D8               	btfsc	status,2
  2816  00203C  EF22  F010         	goto	u3431
  2817  002040  EF24  F010         	goto	u3430
  2818  002044                     u3431:
  2819  002044  EF33  F010         	goto	l578
  2820  002048                     u3430:
  2821                           	line	1537
  2822                           ;usb_device.c: 1536: {
  2823                           ;usb_device.c: 1537: outPipes[0].pFunc();
  2824  002048  EE00 F00C          	lfsr	0,(c:6)+06h
  2825  00204C  D802               	call	u3448
  2826  00204E  EF33  F010         	goto	u3449
  2827  002052                     u3448:
  2828  002052  0005               	push
  2829  002054  6EFA               	movwf	pclath
  2830  002056  50EE               	movf	postinc0,w
  2831  002058  6EFD               	movwf	tosl
  2832  00205A  50EE               	movf	postinc0,w
  2833  00205C  6EFE               	movwf	tosl+1
  2834  00205E  50EE               	movf	postinc0,w
  2835  002060  6EFF               	movwf	tosl+2
  2836  002062  50FA               	movf	pclath,w
  2837                           	
  2838  002064  0012               	return
  2839  002066                     	u3449:
  2840                           	line	1538
  2841                           	
  2842  002066                     l578:		; BSR set to: ?
  2843                           
  2844                           	line	1539
  2845                           ;usb_device.c: 1538: }
  2846                           ;usb_device.c: 1539: outPipes[0].info.bits.busy 
                                 = 0;
  2847  002066  9E09               	bcf	(0+((c:6)+03h)),c,7
  2848                           	line	1540
  2849                           	
  2850  002068                     l577:		; BSR set to: ?
  2851                           
  2852                           	line	1541
  2853                           ;usb_device.c: 1540: }
  2854                           ;usb_device.c: 1541: }
  2855  002068                     l576:
  2856                           			; BSR set to: ?
  2857                           
  2858  002068  0012               	return
  2859                           	opt stack 0
  2860                           GLOBAL __end_of_USBPrepareForNextSetupTrf
  2861  00206A                     	__end_of_USBPrepareForNextSetupTrf:
  2862                           	FNSIZE	_USBPrepareForNextSetupTrf,3,0
  2863                           ; =============== function _USBPrepareForNextSet
                                 upTrf ends ============
  2864                           
  2865                           	signat	_USBPrepareForNextSetupTrf,88
  2866                           	global	_USBCheckStdRequest
  2867                           	global	??_USBCheckStdRequest
  2868                           	global	?_USBCheckStdRequest
  2869                           
  2870                           ; *************** function _USBCheckStdRequest *
                                 ****************
  2871                           ; Defined at:
  2872                           ;		line 1560 in file "X:\mplab\mini project\new 
                                 untouched\USB Io board fimware source\usb_device
                                 .c"
  2873                           ; Parameters:
  2874                           ;		None
  2875                           ; Auto variables:
  2876                           ;		None
  2877                           ; Return value:
  2878                           ;		type: void 
  2879                           ;		size: 0
  2880                           ; Registers used:
  2881                           ;		wreg, fsr0l, fsr0h, status,2, status,0, tblpt
                                 rl, tblptrh, tblptru, tablat, prodl, prodh, csta
                                 ck
  2882                           ; Tracked objects:
  2883                           ;		On entry : 0/0
  2884                           ;		On exit  : 0/0
  2885                           ;		Unchanged: 0/0
  2886                           ; Data sizes:
  2887                           ;		Autos:    0
  2888                           ;		Params:   0
  2889                           ;		Temp:     1
  2890                           ;		Total:    1
  2891                           ; This function calls:
  2892                           ;		_USBStdGetDscHandler
  2893                           ;		_USBStdSetCfgHandler
  2894                           ;		_USBStdGetStatusHandler
  2895                           ;		_USBStdFeatureReqHandler
  2896                           ;		_USER_USB_CALLBACK_EVENT_HANDLER
  2897                           ; This function is called by:
  2898                           ;		_USBCtrlTrfSetupHandler
  2899                           ; This function uses a non-reentrant model
  2900                           ; 
  2901                                   psect   text13,class=CODE,space=0,reloc=
                                 2
  2902                           
  2903                           	opt lm
  2904                           	file	"X:\mplab\mini project\new untouched\USB I
                                 o board fimware source\usb_device.c"
  2905                           	line	1560
  2906  000000                     	__size_of_USBCheckStdRequest	equ	__end_of_USBCh
                                 eckStdRequest-_USBCheckStdRequest
  2907                           ;usb_device.c: 1559: void USBCheckStdRequest(voi
                                 d)
  2908                           ;usb_device.c: 1560: {
  2909                           	
  2910  001540                     _USBCheckStdRequest:		; BSR set to: ?
  2911                           
  2912                           	opt stack 25
  2913                           	line	1561
  2914                           ;usb_device.c: 1561: if(SetupPkt.RequestType != 
                                 (0x00>>5)) return;
  2915  001540  0105               	movlb	5	; () banked
  2916  001542  3900               	swapf	((1280))&0ffh,w	;volatile
  2917  001544  32E8               	rrcf	wreg,f
  2918  001546  0B03               	andlw	(1<<2)-1
  2919  001548  0900               	iorlw	0
  2920  00154A  B4D8               	btfsc	status,2
  2921  00154C  EFAA  F00A         	goto	u3201
  2922  001550  EFAC  F00A         	goto	u3200
  2923  001554                     u3201:
  2924  001554  EFAE  F00A         	goto	l580
  2925  001558                     u3200:
  2926  001558  EF2D  F00B         	goto	l579
  2927                           	
  2928  00155C                     l580:		; BSR set to: ?
  2929                           
  2930                           	line	1563
  2931                           ;usb_device.c: 1563: switch(SetupPkt.bRequest)
  2932  00155C  EF12  F00B         	goto	l582
  2933                           	line	1565
  2934                           ;usb_device.c: 1564: {
  2935                           ;usb_device.c: 1565: case 5:
  2936                           	
  2937  001560                     l583:		; BSR set to: ?
  2938                           
  2939                           	line	1566
  2940                           ;usb_device.c: 1566: inPipes[0].info.bits.busy =
                                  1;
  2941  001560  8E03               	bsf	(0+((c:0)+03h)),c,7
  2942                           	line	1567
  2943                           ;usb_device.c: 1567: USBDeviceState = ADR_PENDIN
                                 G_STATE;
  2944  001562  0101               	movlb	1	; () banked
  2945  001564  6F06               	movwf	(??_USBCheckStdRequest+0+0)&0ffh
  2946  001566  0E08               	movlw	low(08h)
  2947  001568  6E1D               	movwf	((c:29)),c
  2948  00156A  0101               	movlb	1	; () banked
  2949  00156C  5106               	movf	(??_USBCheckStdRequest+0+0)&0ffh,w
  2950                           	line	1569
  2951                           ;usb_device.c: 1569: break;
  2952  00156E  EF2D  F00B         	goto	l581
  2953                           	line	1570
  2954                           ;usb_device.c: 1570: case 6:
  2955                           	
  2956  001572                     l584:		; BSR set to: ?
  2957                           
  2958                           	line	1571
  2959                           ;usb_device.c: 1571: USBStdGetDscHandler();
  2960  001572  EC06  F00A         	call	_USBStdGetDscHandler	;wreg free
  2961                           	line	1572
  2962                           ;usb_device.c: 1572: break;
  2963  001576  EF2D  F00B         	goto	l581
  2964                           	line	1573
  2965                           ;usb_device.c: 1573: case 9:
  2966                           	
  2967  00157A                     l585:		; BSR set to: ?
  2968                           
  2969                           	line	1574
  2970                           ;usb_device.c: 1574: USBStdSetCfgHandler();
  2971  00157A  EC7E  F00E         	call	_USBStdSetCfgHandler	;wreg free
  2972                           	line	1575
  2973                           ;usb_device.c: 1575: break;
  2974  00157E  EF2D  F00B         	goto	l581
  2975                           	line	1576
  2976                           ;usb_device.c: 1576: case 8:
  2977                           	
  2978  001582                     l586:		; BSR set to: ?
  2979                           
  2980                           	line	1577
  2981                           ;usb_device.c: 1577: inPipes[0].pSrc.bRam = (BYT
                                 E*)&USBActiveConfiguration;
  2982  001582  0E1C               	movlw	low((c:28))
  2983  001584  6E00               	movwf	((c:0)),c
  2984  001586  0E00               	movlw	high((c:28))
  2985  001588  6E01               	movwf	((c:0+1)),c
  2986                           	line	1578
  2987                           ;usb_device.c: 1578: inPipes[0].info.bits.ctrl_t
                                 rf_mem = 0x01;
  2988  00158A  8003               	bsf	(0+((c:0)+03h)),c,0
  2989                           	line	1579
  2990                           ;usb_device.c: 1579: inPipes[0].wCount.v[0] = 1;
  2991  00158C  0101               	movlb	1	; () banked
  2992  00158E  6F06               	movwf	(??_USBCheckStdRequest+0+0)&0ffh
  2993  001590  0E01               	movlw	low(01h)
  2994  001592  6E04               	movwf	(0+((c:0)+04h)),c
  2995  001594  0101               	movlb	1	; () banked
  2996  001596  5106               	movf	(??_USBCheckStdRequest+0+0)&0ffh,w
  2997                           	line	1580
  2998                           ;usb_device.c: 1580: inPipes[0].info.bits.busy =
                                  1;
  2999  001598  8E03               	bsf	(0+((c:0)+03h)),c,7
  3000                           	line	1581
  3001                           ;usb_device.c: 1581: break;
  3002  00159A  EF2D  F00B         	goto	l581
  3003                           	line	1582
  3004                           ;usb_device.c: 1582: case 0:
  3005                           	
  3006  00159E                     l587:		; BSR set to: ?
  3007                           
  3008                           	line	1583
  3009                           ;usb_device.c: 1583: USBStdGetStatusHandler();
  3010  00159E  ECAD  F00C         	call	_USBStdGetStatusHandler	;wreg free
  3011                           	line	1584
  3012                           ;usb_device.c: 1584: break;
  3013  0015A2  EF2D  F00B         	goto	l581
  3014                           	line	1586
  3015                           	
  3016  0015A6                     l589:		; BSR set to: ?
  3017                           
  3018                           	line	1587
  3019                           ;usb_device.c: 1586: case 3:
  3020                           ;usb_device.c: 1587: USBStdFeatureReqHandler();
  3021  0015A6  ECE4  F004         	call	_USBStdFeatureReqHandler	;wreg free
  3022                           	line	1588
  3023                           ;usb_device.c: 1588: break;
  3024  0015AA  EF2D  F00B         	goto	l581
  3025                           	line	1589
  3026                           ;usb_device.c: 1589: case 10:
  3027                           	
  3028  0015AE                     l590:		; BSR set to: ?
  3029                           
  3030                           	line	1590
  3031                           ;usb_device.c: 1590: inPipes[0].pSrc.bRam = (BYT
                                 E*)&USBAlternateInterface[SetupPkt.bIntfID];
  3032  0015AE  0E24               	movlw	low((c:36))
  3033  0015B0  0105               	movlb	5	; () banked
  3034  0015B2  0105               	movlb	5	; () banked
  3035  0015B4  2504               	addwf	(0+(1280+04h))&0ffh,w	;volatile
  3036                           	
  3037  0015B6  6E00               	movwf	((c:0)),c
  3038  0015B8  6A01               	clrf	1+((c:0)),c
  3039  0015BA  0E00               	movlw	high((c:36))
  3040  0015BC  2201               	addwfc	1+((c:0)),c
  3041                           	line	1591
  3042                           ;usb_device.c: 1591: inPipes[0].info.bits.ctrl_t
                                 rf_mem = 0x01;
  3043  0015BE  8003               	bsf	(0+((c:0)+03h)),c,0
  3044                           	line	1592
  3045                           ;usb_device.c: 1592: inPipes[0].wCount.v[0] = 1;
  3046  0015C0  0101               	movlb	1	; () banked
  3047  0015C2  6F06               	movwf	(??_USBCheckStdRequest+0+0)&0ffh
  3048  0015C4  0E01               	movlw	low(01h)
  3049  0015C6  6E04               	movwf	(0+((c:0)+04h)),c
  3050  0015C8  0101               	movlb	1	; () banked
  3051  0015CA  5106               	movf	(??_USBCheckStdRequest+0+0)&0ffh,w
  3052                           	line	1593
  3053                           ;usb_device.c: 1593: inPipes[0].info.bits.busy =
                                  1;
  3054  0015CC  8E03               	bsf	(0+((c:0)+03h)),c,7
  3055                           	line	1594
  3056                           ;usb_device.c: 1594: break;
  3057  0015CE  EF2D  F00B         	goto	l581
  3058                           	line	1595
  3059                           ;usb_device.c: 1595: case 11:
  3060                           	
  3061  0015D2                     l591:		; BSR set to: ?
  3062                           
  3063                           	line	1596
  3064                           ;usb_device.c: 1596: inPipes[0].info.bits.busy =
                                  1;
  3065  0015D2  8E03               	bsf	(0+((c:0)+03h)),c,7
  3066                           	line	1597
  3067                           ;usb_device.c: 1597: USBAlternateInterface[Setup
                                 Pkt.bIntfID] = SetupPkt.bAltID;
  3068  0015D4  0E24               	movlw	low((c:36))
  3069  0015D6  0105               	movlb	5	; () banked
  3070  0015D8  0105               	movlb	5	; () banked
  3071  0015DA  2504               	addwf	(0+(1280+04h))&0ffh,w	;volatile
  3072  0015DC  6EE9               	movwf	c:fsr0l
  3073  0015DE  6AEA               	clrf	1+c:fsr0l
  3074  0015E0  0E00               	movlw	high((c:36))
  3075  0015E2  22EA               	addwfc	1+c:fsr0l
  3076  0015E4  0105               	movlb	5	; () banked
  3077  0015E6  C502 FFEF          	movff	0+(1280+02h),indf0	;volatile
  3078                           
  3079                           	line	1598
  3080                           ;usb_device.c: 1598: break;
  3081  0015EA  EF2D  F00B         	goto	l581
  3082                           	line	1599
  3083                           ;usb_device.c: 1599: case 7:
  3084                           	
  3085  0015EE                     l592:		; BSR set to: ?
  3086                           
  3087                           	line	1600
  3088                           ;usb_device.c: 1600: USER_USB_CALLBACK_EVENT_HAN
                                 DLER(EVENT_SET_DESCRIPTOR,0,0);
  3089  0015EE  0E00               	movlw	low(0)
  3090  0015F0  0101               	movlb	1	; () banked
  3091  0015F2  0101               	movlb	1	; () banked
  3092  0015F4  6F0C               	movwf	(0+(?_USER_USB_CALLBACK_EVENT_HANDLER+04h
                                 ))&0ffh
  3093  0015F6  0E00               	movlw	high(0)
  3094  0015F8  0101               	movlb	1	; () banked
  3095  0015FA  6F0D               	movwf	(1+(?_USER_USB_CALLBACK_EVENT_HANDLER+04h
                                 ))&0ffh
  3096  0015FC  0E00               	movlw	low(0)
  3097  0015FE  0101               	movlb	1	; () banked
  3098  001600  0101               	movlb	1	; () banked
  3099  001602  6F0A               	movwf	(0+(?_USER_USB_CALLBACK_EVENT_HANDLER+02h
                                 ))&0ffh
  3100  001604  0E00               	movlw	high(0)
  3101  001606  0101               	movlb	1	; () banked
  3102  001608  6F0B               	movwf	(1+(?_USER_USB_CALLBACK_EVENT_HANDLER+02h
                                 ))&0ffh
  3103  00160A  0E02               	movlw	low(02h)
  3104  00160C  0101               	movlb	1	; () banked
  3105  00160E  0101               	movlb	1	; () banked
  3106  001610  6F08               	movwf	((?_USER_USB_CALLBACK_EVENT_HANDLER))&0ff
                                 h
  3107  001612  0E00               	movlw	high(02h)
  3108  001614  0101               	movlb	1	; () banked
  3109  001616  6F09               	movwf	((?_USER_USB_CALLBACK_EVENT_HANDLER+1))&0
                                 ffh
  3110  001618  ECDC  F00E         	call	_USER_USB_CALLBACK_EVENT_HANDLER	;wreg fre
                                 e
  3111                           	line	1601
  3112                           ;usb_device.c: 1601: break;
  3113  00161C  EF2D  F00B         	goto	l581
  3114                           	line	1603
  3115                           ;usb_device.c: 1603: default:
  3116                           	
  3117  001620                     l594:		; BSR set to: ?
  3118                           
  3119                           	line	1604
  3120                           ;usb_device.c: 1604: break;
  3121  001620  EF2D  F00B         	goto	l581
  3122                           	line	1563
  3123                           	
  3124  001624                     l582:		; BSR set to: ?
  3125                           
  3126  001624  0105               	movlb	5	; () banked
  3127  001626  0105               	movlb	5	; () banked
  3128  001628  5101               	movf	(0+(1280+01h))&0ffh,w	;volatile
  3129  00162A  0A00               	xorlw	0 ^ 0
  3130  00162C  E0B8               	bz	l587
  3131  00162E  0A01               	xorlw	1 ^ 0
  3132  001630  E0BA               	bz	l589
  3133  001632  0A02               	xorlw	3 ^ 1
  3134  001634  E0B8               	bz	l589
  3135  001636  0A06               	xorlw	5 ^ 3
  3136  001638  E093               	bz	l583
  3137  00163A  0A03               	xorlw	6 ^ 5
  3138  00163C  E09A               	bz	l584
  3139  00163E  0A01               	xorlw	7 ^ 6
  3140  001640  E0D6               	bz	l592
  3141  001642  0A0F               	xorlw	8 ^ 7
  3142  001644  E09E               	bz	l586
  3143  001646  0A01               	xorlw	9 ^ 8
  3144  001648  E098               	bz	l585
  3145  00164A  0A03               	xorlw	10 ^ 9
  3146  00164C  E0B0               	bz	l590
  3147  00164E  0A01               	xorlw	11 ^ 10
  3148  001650  E0C0               	bz	l591
  3149  001652  0A07               	xorlw	12 ^ 11
  3150  001654  E0E5               	bz	l594
  3151  001656  EF10  F00B         	goto	l594
  3152                           
  3153                           	line	1605
  3154                           	
  3155  00165A                     l581:		; BSR set to: ?
  3156                           
  3157                           	line	1606
  3158                           ;usb_device.c: 1606: }
  3159  00165A                     l579:
  3160                           			; BSR set to: ?
  3161                           
  3162  00165A  0012               	return
  3163                           	opt stack 0
  3164                           GLOBAL __end_of_USBCheckStdRequest
  3165  00165C                     	__end_of_USBCheckStdRequest:
  3166                           	FNSIZE	_USBCheckStdRequest,1,0
  3167                           ; =============== function _USBCheckStdRequest e
                                 nds ============
  3168                           
  3169                           	signat	_USBCheckStdRequest,88
  3170                           	global	_USBCtrlTrfRxService
  3171                           	global	??_USBCtrlTrfRxService
  3172                           	global	?_USBCtrlTrfRxService
  3173                           
  3174                           ; *************** function _USBCtrlTrfRxService 
                                 *****************
  3175                           ; Defined at:
  3176                           ;		line 2153 in file "X:\mplab\mini project\new 
                                 untouched\USB Io board fimware source\usb_device
                                 .c"
  3177                           ; Parameters:
  3178                           ;		None
  3179                           ; Auto variables:
  3180                           ;		byteToRead  	       	type: unsigned char 
  3181                           ;		i           	       	type: unsigned char 
  3182                           ; Return value:
  3183                           ;		type: void 
  3184                           ;		size: 0
  3185                           ; Registers used:
  3186                           ;		wreg, fsr0l, fsr0h, fsr1l, fsr1h, status,2, s
                                 tatus,0, pclat, tosl, cstack
  3187                           ; Tracked objects:
  3188                           ;		On entry : 0/0
  3189                           ;		On exit  : 0/0
  3190                           ;		Unchanged: 0/0
  3191                           ; Data sizes:
  3192                           ;		Autos:    2
  3193                           ;		Params:   0
  3194                           ;		Temp:     1
  3195                           ;		Total:    3
  3196                           ; This function calls:
  3197                           ;		Nothing
  3198                           ; This function is called by:
  3199                           ;		_USBCtrlTrfOutHandler
  3200                           ; This function uses a non-reentrant model
  3201                           ; 
  3202                                   psect   text14,class=CODE,space=0,reloc=
                                 2
  3203                           
  3204                           	opt lm
  3205                           	file	"X:\mplab\mini project\new untouched\USB I
                                 o board fimware source\usb_device.c"
  3206                           	line	2153
  3207  000000                     	__size_of_USBCtrlTrfRxService	equ	__end_of_USBC
                                 trlTrfRxService-_USBCtrlTrfRxService
  3208                           ;usb_device.c: 2152: void USBCtrlTrfRxService(vo
                                 id)
  3209                           ;usb_device.c: 2153: {
  3210                           	
  3211  000D08                     _USBCtrlTrfRxService:		; BSR set to: ?
  3212                           
  3213                           	opt stack 25
  3214                           	line	2157
  3215                           ;usb_device.c: 2154: BYTE byteToRead;
  3216                           ;usb_device.c: 2155: BYTE i;
  3217                           ;usb_device.c: 2157: byteToRead = pBDTEntryEP0Ou
                                 tCurrent->CNT;
  3218  000D08  0E01               	movlw	low(01h)
  3219  000D0A  2415               	addwf	((c:21)),c,w
  3220  000D0C  6EE9               	movwf	c:fsr0l
  3221  000D0E  0E00               	movlw	high(01h)
  3222  000D10  2016               	addwfc	((c:21+1)),c,w
  3223  000D12  6EEA               	movwf	1+c:fsr0l
  3224  000D14  50EF               	movf	indf0,w
  3225  000D16  0101               	movlb	1	; () banked
  3226  000D18  0101               	movlb	1	; () banked
  3227  000D1A  6F06               	movwf	((USBCtrlTrfRxService@byteToRead))&0ffh
  3228                           	line	2162
  3229                           ;usb_device.c: 2162: if(byteToRead > outPipes[0]
                                 .wCount.Val)
  3230  000D1C  0101               	movlb	1	; () banked
  3231  000D1E  0101               	movlb	1	; () banked
  3232  000D20  5106               	movf	((USBCtrlTrfRxService@byteToRead))&0ffh,w
  3233  000D22  5C0A               	subwf	(0+((c:6)+04h)),c,w
  3234  000D24  0E00               	movlw	0
  3235  000D26  580B               	subwfb	(1+((c:6)+04h)),c,w
  3236  000D28  B0D8               	btfsc	status,0
  3237  000D2A  EF99  F006         	goto	u3451
  3238  000D2E  EF9B  F006         	goto	u3450
  3239  000D32                     u3451:
  3240  000D32  EF9F  F006         	goto	l652
  3241  000D36                     u3450:
  3242                           	line	2164
  3243                           ;usb_device.c: 2163: {
  3244                           ;usb_device.c: 2164: byteToRead = outPipes[0].wC
                                 ount.Val;
  3245  000D36  C00A F106          	movff	0+((c:6)+04h),(USBCtrlTrfRxService@byteTo
                                 Read)
  3246                           	line	2165
  3247                           ;usb_device.c: 2165: }
  3248  000D3A  EFA8  F006         	goto	l653
  3249                           	line	2166
  3250                           	
  3251  000D3E                     l652:		; BSR set to: ?
  3252                           
  3253                           	line	2168
  3254                           ;usb_device.c: 2166: else
  3255                           ;usb_device.c: 2167: {
  3256                           ;usb_device.c: 2168: outPipes[0].wCount.Val = ou
                                 tPipes[0].wCount.Val - byteToRead;
  3257  000D3E  0101               	movlb	1	; () banked
  3258  000D40  0101               	movlb	1	; () banked
  3259  000D42  5106               	movf	((USBCtrlTrfRxService@byteToRead))&0ffh,w
  3260  000D44  5C0A               	subwf	(0+((c:6)+04h)),c,w
  3261                           	
  3262  000D46  6E0A               	movwf	(0+((c:6)+04h)),c
  3263  000D48  500B               	movf	(1+((c:6)+04h)),c,w
  3264  000D4A  A0D8               	btfss	status,0
  3265  000D4C  040B               	decf	(1+((c:6)+04h)),c,w
  3266  000D4E  6E0B               	movwf	1+(0+((c:6)+04h)),c
  3267                           	line	2169
  3268                           	
  3269  000D50                     l653:		; BSR set to: ?
  3270                           
  3271                           	line	2171
  3272                           ;usb_device.c: 2169: }
  3273                           ;usb_device.c: 2171: for(i=0;i<byteToRead;i++)
  3274  000D50  0101               	movlb	1	; () banked
  3275  000D52  6F08               	movwf	(??_USBCtrlTrfRxService+2+0)&0ffh
  3276  000D54  0E00               	movlw	low(0)
  3277  000D56  0101               	movlb	1	; () banked
  3278  000D58  0101               	movlb	1	; () banked
  3279  000D5A  6F07               	movwf	((USBCtrlTrfRxService@i))&0ffh
  3280  000D5C  0101               	movlb	1	; () banked
  3281  000D5E  5108               	movf	(??_USBCtrlTrfRxService+2+0)&0ffh,w
  3282  000D60  EFC7  F006         	goto	l657
  3283                           	line	2172
  3284                           	
  3285  000D64                     l654:		; BSR set to: ?
  3286                           
  3287                           	line	2173
  3288  000D64  0105               	movlb	5	; () banked
  3289  000D66  0E20               	movlw	low(1312)	;volatile
  3290  000D68  0101               	movlb	1	; () banked
  3291  000D6A  0101               	movlb	1	; () banked
  3292  000D6C  2507               	addwf	((USBCtrlTrfRxService@i))&0ffh,w
  3293  000D6E  6EE9               	movwf	c:fsr0l
  3294  000D70  6AEA               	clrf	1+c:fsr0l
  3295  000D72  0105               	movlb	5	; () banked
  3296  000D74  0E05               	movlw	high(1312)	;volatile
  3297  000D76  22EA               	addwfc	1+c:fsr0l
  3298  000D78  C006 FFE1          	movff	(c:6),fsr1l
  3299  000D7C  C007 FFE2          	movff	(c:6+1),fsr1h
  3300  000D80  CFEF FFE7          	movff	indf0,indf1
  3301                           ;usb_device.c: 2172: {
  3302                           ;usb_device.c: 2173: *outPipes[0].pDst.bRam++ = 
                                 CtrlTrfData[i];
  3303  000D84  4A06               	infsnz	((c:6)),c
  3304  000D86  2A07               	incf	((c:6+1)),c
  3305                           	line	2171
  3306  000D88  0101               	movlb	1	; () banked
  3307  000D8A  0101               	movlb	1	; () banked
  3308  000D8C  2B07               	incf	((USBCtrlTrfRxService@i))&0ffh
  3309                           	
  3310  000D8E                     l657:		; BSR set to: ?
  3311                           
  3312  000D8E  0101               	movlb	1	; () banked
  3313  000D90  0101               	movlb	1	; () banked
  3314  000D92  5106               	movf	((USBCtrlTrfRxService@byteToRead))&0ffh,w
  3315  000D94  0101               	movlb	1	; () banked
  3316  000D96  0101               	movlb	1	; () banked
  3317  000D98  5D07               	subwf	((USBCtrlTrfRxService@i))&0ffh,w
  3318  000D9A  A0D8               	btfss	status,0
  3319  000D9C  EFD2  F006         	goto	u3461
  3320  000DA0  EFD4  F006         	goto	u3460
  3321  000DA4                     u3461:
  3322  000DA4  EFB2  F006         	goto	l654
  3323  000DA8                     u3460:
  3324                           	
  3325  000DA8                     l655:		; BSR set to: ?
  3326                           
  3327                           	line	2177
  3328                           ;usb_device.c: 2174: }
  3329                           ;usb_device.c: 2177: if(outPipes[0].wCount.Val >
                                  0)
  3330  000DA8  500B               	movf	(1+((c:6)+04h)),c,w
  3331  000DAA  100A               	iorwf (0+((c:6)+04h)),c,w
  3332                           
  3333  000DAC  B4D8               	btfsc	status,2
  3334  000DAE  EFDB  F006         	goto	u3471
  3335  000DB2  EFDD  F006         	goto	u3470
  3336  000DB6                     u3471:
  3337  000DB6  EF10  F007         	goto	l658
  3338  000DBA                     u3470:
  3339                           	line	2184
  3340                           ;usb_device.c: 2178: {
  3341                           ;usb_device.c: 2184: pBDTEntryEP0OutNext->CNT = 
                                 8;
  3342  000DBA  0E01               	movlw	low(01h)
  3343  000DBC  2413               	addwf	((c:19)),c,w
  3344  000DBE  6EE9               	movwf	c:fsr0l
  3345  000DC0  0E00               	movlw	high(01h)
  3346  000DC2  2014               	addwfc	((c:19+1)),c,w
  3347  000DC4  6EEA               	movwf	1+c:fsr0l
  3348  000DC6  0E08               	movlw	low(08h)
  3349  000DC8  6EEF               	movwf	indf0
  3350                           	line	2185
  3351                           ;usb_device.c: 2185: pBDTEntryEP0OutNext->ADR = 
                                 (BYTE*)&CtrlTrfData;
  3352  000DCA  0E02               	movlw	low(02h)
  3353  000DCC  2413               	addwf	((c:19)),c,w
  3354  000DCE  6EE9               	movwf	c:fsr0l
  3355  000DD0  0E00               	movlw	high(02h)
  3356  000DD2  2014               	addwfc	((c:19+1)),c,w
  3357  000DD4  6EEA               	movwf	1+c:fsr0l
  3358  000DD6  0105               	movlb	5	; () banked
  3359  000DD8  0E20               	movlw	low(1312)	;volatile
  3360  000DDA  6EEE               	movwf	postinc0
  3361  000DDC  0105               	movlb	5	; () banked
  3362  000DDE  0E05               	movlw	high(1312)	;volatile
  3363  000DE0  6EED               	movwf	postdec0
  3364                           	line	2186
  3365                           ;usb_device.c: 2186: if(pBDTEntryEP0OutCurrent->
                                 STAT.DTS == 0)
  3366  000DE2  C015 FFE9          	movff	(c:21),fsr0l
  3367  000DE6  C016 FFEA          	movff	(c:21+1),fsr0h
  3368  000DEA  50EF               	movf	indf0,w
  3369  000DEC  0101               	movlb	1	; () banked
  3370  000DEE  6F08               	movwf	(??_USBCtrlTrfRxService+2+0)&0ffh
  3371  000DF0  0101               	movlb	1	; () banked
  3372                           	
  3373  000DF2  BD08               	btfsc	((??_USBCtrlTrfRxService+2+0))&0ffh,6
  3374  000DF4  EFFE  F006         	goto	u3481
  3375  000DF8  EF00  F007         	goto	u3480
  3376  000DFC                     u3481:
  3377  000DFC  EF08  F007         	goto	l659
  3378  000E00                     u3480:
  3379                           	line	2188
  3380                           ;usb_device.c: 2187: {
  3381                           ;usb_device.c: 2188: pBDTEntryEP0OutNext->STAT.V
                                 al = 0x80|0x40|0x08;
  3382  000E00  C013 FFE9          	movff	(c:19),fsr0l
  3383  000E04  C014 FFEA          	movff	(c:19+1),fsr0h
  3384  000E08  0EC8               	movlw	low(0C8h)
  3385  000E0A  6EEF               	movwf	indf0
  3386                           	line	2189
  3387                           ;usb_device.c: 2189: }
  3388  000E0C  EF0E  F007         	goto	l660
  3389                           	line	2190
  3390                           	
  3391  000E10                     l659:		; BSR set to: ?
  3392                           
  3393                           	line	2192
  3394                           ;usb_device.c: 2190: else
  3395                           ;usb_device.c: 2191: {
  3396                           ;usb_device.c: 2192: pBDTEntryEP0OutNext->STAT.V
                                 al = 0x80|0x00|0x08;
  3397  000E10  C013 FFE9          	movff	(c:19),fsr0l
  3398  000E14  C014 FFEA          	movff	(c:19+1),fsr0h
  3399  000E18  0E88               	movlw	low(088h)
  3400  000E1A  6EEF               	movwf	indf0
  3401                           	line	2193
  3402                           	
  3403  000E1C                     l660:		; BSR set to: ?
  3404                           
  3405                           	line	2194
  3406                           ;usb_device.c: 2193: }
  3407                           ;usb_device.c: 2194: }
  3408  000E1C  EF46  F007         	goto	l661
  3409                           	line	2195
  3410                           	
  3411  000E20                     l658:		; BSR set to: ?
  3412                           
  3413                           	line	2197
  3414                           ;usb_device.c: 2195: else
  3415                           ;usb_device.c: 2196: {
  3416                           ;usb_device.c: 2197: pBDTEntryEP0OutNext->CNT = 
                                 8;
  3417  000E20  0E01               	movlw	low(01h)
  3418  000E22  2413               	addwf	((c:19)),c,w
  3419  000E24  6EE9               	movwf	c:fsr0l
  3420  000E26  0E00               	movlw	high(01h)
  3421  000E28  2014               	addwfc	((c:19+1)),c,w
  3422  000E2A  6EEA               	movwf	1+c:fsr0l
  3423  000E2C  0E08               	movlw	low(08h)
  3424  000E2E  6EEF               	movwf	indf0
  3425                           	line	2198
  3426                           ;usb_device.c: 2198: pBDTEntryEP0OutNext->ADR = 
                                 (BYTE*)&SetupPkt;
  3427  000E30  0E02               	movlw	low(02h)
  3428  000E32  2413               	addwf	((c:19)),c,w
  3429  000E34  6EE9               	movwf	c:fsr0l
  3430  000E36  0E00               	movlw	high(02h)
  3431  000E38  2014               	addwfc	((c:19+1)),c,w
  3432  000E3A  6EEA               	movwf	1+c:fsr0l
  3433  000E3C  0105               	movlb	5	; () banked
  3434  000E3E  0E00               	movlw	low(1280)	;volatile
  3435  000E40  6EEE               	movwf	postinc0
  3436  000E42  0105               	movlb	5	; () banked
  3437  000E44  0E05               	movlw	high(1280)	;volatile
  3438  000E46  6EED               	movwf	postdec0
  3439                           	line	2202
  3440                           ;usb_device.c: 2202: pBDTEntryEP0OutNext->STAT.V
                                 al = 0x80|0x04;
  3441  000E48  C013 FFE9          	movff	(c:19),fsr0l
  3442  000E4C  C014 FFEA          	movff	(c:19+1),fsr0h
  3443  000E50  0E84               	movlw	low(084h)
  3444  000E52  6EEF               	movwf	indf0
  3445                           	line	2204
  3446                           ;usb_device.c: 2204: if(outPipes[0].pFunc != (0)
                                 )
  3447  000E54  EE00 F00C          	lfsr	0,(c:6)+06h
  3448  000E58  50EE               	movf	postinc0,w
  3449  000E5A  10EE               	iorwf	postinc0,w
  3450  000E5C  10ED               	iorwf	postdec0,w
  3451  000E5E  B4D8               	btfsc	status,2
  3452  000E60  EF34  F007         	goto	u3491
  3453  000E64  EF36  F007         	goto	u3490
  3454  000E68                     u3491:
  3455  000E68  EF45  F007         	goto	l662
  3456  000E6C                     u3490:
  3457                           	line	2206
  3458                           ;usb_device.c: 2205: {
  3459                           ;usb_device.c: 2206: outPipes[0].pFunc();
  3460  000E6C  EE00 F00C          	lfsr	0,(c:6)+06h
  3461  000E70  D802               	call	u3508
  3462  000E72  EF45  F007         	goto	u3509
  3463  000E76                     u3508:
  3464  000E76  0005               	push
  3465  000E78  6EFA               	movwf	pclath
  3466  000E7A  50EE               	movf	postinc0,w
  3467  000E7C  6EFD               	movwf	tosl
  3468  000E7E  50EE               	movf	postinc0,w
  3469  000E80  6EFE               	movwf	tosl+1
  3470  000E82  50EE               	movf	postinc0,w
  3471  000E84  6EFF               	movwf	tosl+2
  3472  000E86  50FA               	movf	pclath,w
  3473                           	
  3474  000E88  0012               	return
  3475  000E8A                     	u3509:
  3476                           	line	2207
  3477                           	
  3478  000E8A                     l662:		; BSR set to: ?
  3479                           
  3480                           	line	2208
  3481                           ;usb_device.c: 2207: }
  3482                           ;usb_device.c: 2208: outPipes[0].info.bits.busy 
                                 = 0;
  3483  000E8A  9E09               	bcf	(0+((c:6)+03h)),c,7
  3484                           	line	2209
  3485                           	
  3486  000E8C                     l661:		; BSR set to: ?
  3487                           
  3488                           	line	2210
  3489                           ;usb_device.c: 2209: }
  3490                           ;usb_device.c: 2210: }
  3491  000E8C                     l651:
  3492                           			; BSR set to: ?
  3493                           
  3494  000E8C  0012               	return
  3495                           	opt stack 0
  3496                           GLOBAL __end_of_USBCtrlTrfRxService
  3497  000E8E                     	__end_of_USBCtrlTrfRxService:
  3498                           	FNSIZE	_USBCtrlTrfRxService,3,0
  3499                           ; =============== function _USBCtrlTrfRxService 
                                 ends ============
  3500                           
  3501                           	signat	_USBCtrlTrfRxService,88
  3502                           	global	_USBCtrlEPServiceComplete
  3503                           	global	??_USBCtrlEPServiceComplete
  3504                           	global	?_USBCtrlEPServiceComplete
  3505                           
  3506                           ; *************** function _USBCtrlEPServiceComp
                                 lete *****************
  3507                           ; Defined at:
  3508                           ;		line 1911 in file "X:\mplab\mini project\new 
                                 untouched\USB Io board fimware source\usb_device
                                 .c"
  3509                           ; Parameters:
  3510                           ;		None
  3511                           ; Auto variables:
  3512                           ;		None
  3513                           ; Return value:
  3514                           ;		type: void 
  3515                           ;		size: 0
  3516                           ; Registers used:
  3517                           ;		wreg, fsr0l, fsr0h, fsr1l, fsr1h, status,2, s
                                 tatus,0, tblptrl, tblptrh, tblptru, tablat, csta
                                 ck
  3518                           ; Tracked objects:
  3519                           ;		On entry : 0/0
  3520                           ;		On exit  : 0/0
  3521                           ;		Unchanged: 0/0
  3522                           ; Data sizes:
  3523                           ;		Autos:    0
  3524                           ;		Params:   0
  3525                           ;		Temp:     1
  3526                           ;		Total:    1
  3527                           ; This function calls:
  3528                           ;		_USBCtrlTrfTxService
  3529                           ; This function is called by:
  3530                           ;		_USBCtrlTrfSetupHandler
  3531                           ; This function uses a non-reentrant model
  3532                           ; 
  3533                                   psect   text15,class=CODE,space=0,reloc=
                                 2
  3534                           
  3535                           	opt lm
  3536                           	file	"X:\mplab\mini project\new untouched\USB I
                                 o board fimware source\usb_device.c"
  3537                           	line	1911
  3538  000000                     	__size_of_USBCtrlEPServiceComplete	equ	__end_of
                                 _USBCtrlEPServiceComplete-_USBCtrlEPServiceCompl
                                 ete
  3539                           ;usb_device.c: 1910: void USBCtrlEPServiceComple
                                 te(void)
  3540                           ;usb_device.c: 1911: {
  3541                           	
  3542  0007A2                     _USBCtrlEPServiceComplete:		; BSR set to: ?
  3543                           
  3544                           	opt stack 25
  3545                           	line	1916
  3546                           ;usb_device.c: 1916: PKTDIS = 0;
  3547  0007A2  986D               	bcf	c:(31596/8),(31596)&7	;volatile
  3548                           	line	1918
  3549                           ;usb_device.c: 1918: if(inPipes[0].info.bits.bus
                                 y == 0)
  3550                           	
  3551  0007A4  BE03               	btfsc	(0+((c:0)+03h)),c,7
  3552  0007A6  EFD7  F003         	goto	u3511
  3553  0007AA  EFD9  F003         	goto	u3510
  3554  0007AE                     u3511:
  3555  0007AE  EF32  F004         	goto	l629
  3556  0007B2                     u3510:
  3557                           	line	1920
  3558                           ;usb_device.c: 1919: {
  3559                           ;usb_device.c: 1920: if(outPipes[0].info.bits.bu
                                 sy == 1)
  3560                           	
  3561  0007B2  AE09               	btfss	(0+((c:6)+03h)),c,7
  3562  0007B4  EFDE  F003         	goto	u3521
  3563  0007B8  EFE0  F003         	goto	u3520
  3564  0007BC                     u3521:
  3565  0007BC  EF10  F004         	goto	l630
  3566  0007C0                     u3520:
  3567                           	line	1922
  3568                           ;usb_device.c: 1921: {
  3569                           ;usb_device.c: 1922: controlTransferState = 2;
  3570  0007C0  0101               	movlb	1	; () banked
  3571  0007C2  6F06               	movwf	(??_USBCtrlEPServiceComplete+0+0)&0ffh
  3572  0007C4  0E02               	movlw	low(02h)
  3573  0007C6  6E26               	movwf	((c:38)),c
  3574  0007C8  0101               	movlb	1	; () banked
  3575  0007CA  5106               	movf	(??_USBCtrlEPServiceComplete+0+0)&0ffh,w
  3576                           	line	1932
  3577                           ;usb_device.c: 1932: pBDTEntryIn[0]->CNT = 0;
  3578  0007CC  0E01               	movlw	low(01h)
  3579  0007CE  240F               	addwf	((c:15)),c,w
  3580  0007D0  6EE9               	movwf	c:fsr0l
  3581  0007D2  0E00               	movlw	high(01h)
  3582  0007D4  2010               	addwfc	((c:15+1)),c,w
  3583  0007D6  6EEA               	movwf	1+c:fsr0l
  3584  0007D8  0E00               	movlw	low(0)
  3585  0007DA  6EEF               	movwf	indf0
  3586                           	line	1933
  3587                           ;usb_device.c: 1933: pBDTEntryIn[0]->STAT.Val = 
                                 0x80|0x40|0x08;
  3588  0007DC  C00F FFE9          	movff	(c:15),fsr0l
  3589  0007E0  C010 FFEA          	movff	(c:15+1),fsr0h
  3590  0007E4  0EC8               	movlw	low(0C8h)
  3591  0007E6  6EEF               	movwf	indf0
  3592                           	line	1938
  3593                           ;usb_device.c: 1938: pBDTEntryEP0OutNext->CNT = 
                                 8;
  3594  0007E8  0E01               	movlw	low(01h)
  3595  0007EA  2413               	addwf	((c:19)),c,w
  3596  0007EC  6EE9               	movwf	c:fsr0l
  3597  0007EE  0E00               	movlw	high(01h)
  3598  0007F0  2014               	addwfc	((c:19+1)),c,w
  3599  0007F2  6EEA               	movwf	1+c:fsr0l
  3600  0007F4  0E08               	movlw	low(08h)
  3601  0007F6  6EEF               	movwf	indf0
  3602                           	line	1939
  3603                           ;usb_device.c: 1939: pBDTEntryEP0OutNext->ADR = 
                                 (BYTE*)&CtrlTrfData;
  3604  0007F8  0E02               	movlw	low(02h)
  3605  0007FA  2413               	addwf	((c:19)),c,w
  3606  0007FC  6EE9               	movwf	c:fsr0l
  3607  0007FE  0E00               	movlw	high(02h)
  3608  000800  2014               	addwfc	((c:19+1)),c,w
  3609  000802  6EEA               	movwf	1+c:fsr0l
  3610  000804  0105               	movlb	5	; () banked
  3611  000806  0E20               	movlw	low(1312)	;volatile
  3612  000808  6EEE               	movwf	postinc0
  3613  00080A  0105               	movlb	5	; () banked
  3614  00080C  0E05               	movlw	high(1312)	;volatile
  3615  00080E  6EED               	movwf	postdec0
  3616                           	line	1940
  3617                           ;usb_device.c: 1940: pBDTEntryEP0OutNext->STAT.V
                                 al = 0x80|0x40|0x08;
  3618  000810  C013 FFE9          	movff	(c:19),fsr0l
  3619  000814  C014 FFEA          	movff	(c:19+1),fsr0h
  3620  000818  0EC8               	movlw	low(0C8h)
  3621  00081A  6EEF               	movwf	indf0
  3622                           	line	1941
  3623                           ;usb_device.c: 1941: }
  3624  00081C  EF30  F004         	goto	l631
  3625                           	line	1942
  3626                           	
  3627  000820                     l630:		; BSR set to: ?
  3628                           
  3629                           	line	1948
  3630                           ;usb_device.c: 1942: else
  3631                           ;usb_device.c: 1943: {
  3632                           ;usb_device.c: 1948: pBDTEntryEP0OutNext->CNT = 
                                 8;
  3633  000820  0E01               	movlw	low(01h)
  3634  000822  2413               	addwf	((c:19)),c,w
  3635  000824  6EE9               	movwf	c:fsr0l
  3636  000826  0E00               	movlw	high(01h)
  3637  000828  2014               	addwfc	((c:19+1)),c,w
  3638  00082A  6EEA               	movwf	1+c:fsr0l
  3639  00082C  0E08               	movlw	low(08h)
  3640  00082E  6EEF               	movwf	indf0
  3641                           	line	1949
  3642                           ;usb_device.c: 1949: pBDTEntryEP0OutNext->ADR = 
                                 (BYTE*)&SetupPkt;
  3643  000830  0E02               	movlw	low(02h)
  3644  000832  2413               	addwf	((c:19)),c,w
  3645  000834  6EE9               	movwf	c:fsr0l
  3646  000836  0E00               	movlw	high(02h)
  3647  000838  2014               	addwfc	((c:19+1)),c,w
  3648  00083A  6EEA               	movwf	1+c:fsr0l
  3649  00083C  0105               	movlb	5	; () banked
  3650  00083E  0E00               	movlw	low(1280)	;volatile
  3651  000840  6EEE               	movwf	postinc0
  3652  000842  0105               	movlb	5	; () banked
  3653  000844  0E05               	movlw	high(1280)	;volatile
  3654  000846  6EED               	movwf	postdec0
  3655                           	line	1950
  3656                           ;usb_device.c: 1950: pBDTEntryEP0OutNext->STAT.V
                                 al = 0x80|0x00|0x08|0x04;
  3657  000848  C013 FFE9          	movff	(c:19),fsr0l
  3658  00084C  C014 FFEA          	movff	(c:19+1),fsr0h
  3659  000850  0E8C               	movlw	low(08Ch)
  3660  000852  6EEF               	movwf	indf0
  3661                           	line	1951
  3662                           ;usb_device.c: 1951: pBDTEntryIn[0]->STAT.Val = 
                                 0x80|0x04;
  3663  000854  C00F FFE9          	movff	(c:15),fsr0l
  3664  000858  C010 FFEA          	movff	(c:15+1),fsr0h
  3665  00085C  0E84               	movlw	low(084h)
  3666  00085E  6EEF               	movwf	indf0
  3667                           	line	1952
  3668                           	
  3669  000860                     l631:		; BSR set to: ?
  3670                           
  3671                           	line	1953
  3672                           ;usb_device.c: 1952: }
  3673                           ;usb_device.c: 1953: }
  3674  000860  EFE3  F004         	goto	l632
  3675                           	line	1954
  3676                           	
  3677  000864                     l629:		; BSR set to: ?
  3678                           
  3679                           	line	1956
  3680                           ;usb_device.c: 1954: else
  3681                           ;usb_device.c: 1955: {
  3682                           ;usb_device.c: 1956: if(outPipes[0].info.bits.bu
                                 sy == 0)
  3683                           	
  3684  000864  BE09               	btfsc	(0+((c:6)+03h)),c,7
  3685  000866  EF37  F004         	goto	u3531
  3686  00086A  EF39  F004         	goto	u3530
  3687  00086E                     u3531:
  3688  00086E  EFE3  F004         	goto	l632
  3689  000872                     u3530:
  3690                           	line	1958
  3691                           ;usb_device.c: 1957: {
  3692                           ;usb_device.c: 1958: if(SetupPkt.DataDir == (0x8
                                 0>>7))
  3693  000872  0105               	movlb	5	; () banked
  3694                           	
  3695  000874  0105               	movlb	5	; () banked
  3696  000876  AF00               	btfss	((1280))&0ffh,7	;volatile
  3697  000878  EF40  F004         	goto	u3541
  3698  00087C  EF42  F004         	goto	u3540
  3699  000880                     u3541:
  3700  000880  EFB5  F004         	goto	l634
  3701  000884                     u3540:
  3702                           	line	1960
  3703                           ;usb_device.c: 1959: {
  3704                           ;usb_device.c: 1960: if(SetupPkt.wLength < inPip
                                 es[0].wCount.Val)
  3705  000884  EE00 F004          	lfsr	0,(c:0)+04h
  3706  000888  0105               	movlb	5	; () banked
  3707  00088A  EE15 F006          	lfsr	1,1280+06h	;volatile
  3708  00088E  52E6               	movf	postinc1
  3709  000890  52EE               	movf	postinc0
  3710  000892  50ED               	movf	postdec0,w
  3711  000894  5CE5               	subwf	postdec1,w
  3712  000896  E102               	bnz	u3555
  3713  000898  50EF               	movf	indf0,w
  3714  00089A  5CE7               	subwf	indf1,w
  3715  00089C                     u3555:
  3716                           
  3717  00089C  B0D8               	btfsc	status,0
  3718  00089E  EF53  F004         	goto	u3551
  3719  0008A2  EF55  F004         	goto	u3550
  3720  0008A6                     u3551:
  3721  0008A6  EF59  F004         	goto	l635
  3722  0008AA                     u3550:
  3723                           	line	1962
  3724                           ;usb_device.c: 1961: {
  3725                           ;usb_device.c: 1962: inPipes[0].wCount.Val = Set
                                 upPkt.wLength;
  3726  0008AA  C506 F004          	movff	0+(1280+06h),0+((c:0)+04h)	;volatile
  3727  0008AE  C507 F005          	movff	1+(1280+06h),1+((c:0)+04h)	;volatile
  3728                           	line	1963
  3729                           	
  3730  0008B2                     l635:		; BSR set to: ?
  3731                           
  3732                           	line	1964
  3733                           ;usb_device.c: 1963: }
  3734                           ;usb_device.c: 1964: USBCtrlTrfTxService();
  3735  0008B2  EC47  F007         	call	_USBCtrlTrfTxService	;wreg free
  3736                           	line	1965
  3737                           ;usb_device.c: 1965: controlTransferState = 1;
  3738  0008B6  0101               	movlb	1	; () banked
  3739  0008B8  6F06               	movwf	(??_USBCtrlEPServiceComplete+0+0)&0ffh
  3740  0008BA  0E01               	movlw	low(01h)
  3741  0008BC  6E26               	movwf	((c:38)),c
  3742  0008BE  0101               	movlb	1	; () banked
  3743  0008C0  5106               	movf	(??_USBCtrlEPServiceComplete+0+0)&0ffh,w
  3744                           	line	1987
  3745                           ;usb_device.c: 1987: pBDTEntryEP0OutNext->CNT = 
                                 8;
  3746  0008C2  0E01               	movlw	low(01h)
  3747  0008C4  2413               	addwf	((c:19)),c,w
  3748  0008C6  6EE9               	movwf	c:fsr0l
  3749  0008C8  0E00               	movlw	high(01h)
  3750  0008CA  2014               	addwfc	((c:19+1)),c,w
  3751  0008CC  6EEA               	movwf	1+c:fsr0l
  3752  0008CE  0E08               	movlw	low(08h)
  3753  0008D0  6EEF               	movwf	indf0
  3754                           	line	1988
  3755                           ;usb_device.c: 1988: pBDTEntryEP0OutNext->ADR = 
                                 (BYTE*)&SetupPkt;
  3756  0008D2  0E02               	movlw	low(02h)
  3757  0008D4  2413               	addwf	((c:19)),c,w
  3758  0008D6  6EE9               	movwf	c:fsr0l
  3759  0008D8  0E00               	movlw	high(02h)
  3760  0008DA  2014               	addwfc	((c:19+1)),c,w
  3761  0008DC  6EEA               	movwf	1+c:fsr0l
  3762  0008DE  0105               	movlb	5	; () banked
  3763  0008E0  0E00               	movlw	low(1280)	;volatile
  3764  0008E2  6EEE               	movwf	postinc0
  3765  0008E4  0105               	movlb	5	; () banked
  3766  0008E6  0E05               	movlw	high(1280)	;volatile
  3767  0008E8  6EED               	movwf	postdec0
  3768                           	line	1989
  3769                           ;usb_device.c: 1989: pBDTEntryEP0OutNext->STAT.V
                                 al = 0x80;
  3770  0008EA  C013 FFE9          	movff	(c:19),fsr0l
  3771  0008EE  C014 FFEA          	movff	(c:19+1),fsr0h
  3772  0008F2  0E80               	movlw	low(080h)
  3773  0008F4  6EEF               	movwf	indf0
  3774                           	line	1990
  3775                           ;usb_device.c: 1990: BothEP0OutUOWNsSet = FALSE;
  3776  0008F6  0101               	movlb	1	; () banked
  3777  0008F8  6F06               	movwf	(??_USBCtrlEPServiceComplete+0+0)&0ffh
  3778  0008FA  0E00               	movlw	low(0)
  3779  0008FC  6E29               	movwf	((c:41)),c
  3780+ 0008FE  0101               	movlb	1	; () banked
  3781+ 000900  5106               	movf	(??_USBCtrlEPServiceComplete+0+0)&0ffh,w
  3782+                          	line	1993
  3783+                          ;usb_device.c: 1993: pBDTEntryEP0OutCurrent->CNT
      +                           = 8;
  3784+ 000902  0E01               	movlw	low(01h)
  3785+ 000904  2415               	addwf	((c:21)),c,w
  3786+ 000906  6EE9               	movwf	c:fsr0l
  3787+ 000908  0E00               	movlw	high(01h)
  3788+ 00090A  2016               	addwfc	((c:21+1)),c,w
  3789+ 00090C  6EEA               	movwf	1+c:fsr0l
  3790+ 00090E  0E08               	movlw	low(08h)
  3791+ 000910  6EEF               	movwf	indf0
  3792+                          	line	1994
  3793+                          ;usb_device.c: 1994: pBDTEntryEP0OutCurrent->ADR
      +                           = (BYTE*)&SetupPkt;
  3794+ 000912  0E02               	movlw	low(02h)
  3795+ 000914  2415               	addwf	((c:21)),c,w
  3796+ 000916  6EE9               	movwf	c:fsr0l
  3797+ 000918  0E00               	movlw	high(02h)
  3798+ 00091A  2016               	addwfc	((c:21+1)),c,w
  3799+ 00091C  6EEA               	movwf	1+c:fsr0l
  3800+ 00091E  0105               	movlb	5	; () banked
  3801+ 000920  0E00               	movlw	low(1280)	;volatile
  3802+ 000922  6EEE               	movwf	postinc0
  3803+ 000924  0105               	movlb	5	; () banked
  3804+ 000926  0E05               	movlw	high(1280)	;volatile
  3805+ 000928  6EED               	movwf	postdec0
  3806+                          	line	1995
  3807+                          ;usb_device.c: 1995: pBDTEntryEP0OutCurrent->STA
      +                          T.Val = 0x80|0x04;
  3808+ 00092A  C015 FFE9          	movff	(c:21),fsr0l
  3809+ 00092E  C016 FFEA          	movff	(c:21+1),fsr0h
  3810+ 000932  0E84               	movlw	low(084h)
  3811+ 000934  6EEF               	movwf	indf0
  3812+                          	line	1996
  3813+                          ;usb_device.c: 1996: BothEP0OutUOWNsSet = TRUE;
  3814+ 000936  0101               	movlb	1	; () banked
  3815+ 000938  6F06               	movwf	(??_USBCtrlEPServiceComplete+0+0)&0ffh
  3816+ 00093A  0E01               	movlw	low(01h)
  3817+ 00093C  6E29               	movwf	((c:41)),c
  3818+ 00093E  0101               	movlb	1	; () banked
  3819+ 000940  5106               	movf	(??_USBCtrlEPServiceComplete+0+0)&0ffh,w
  3820+                          	line	2003
  3821+                          ;usb_device.c: 2003: pBDTEntryIn[0]->ADR = (BYTE
      +                          *)&CtrlTrfData;
  3822+ 000942  0E02               	movlw	low(02h)
  3823+ 000944  240F               	addwf	((c:15)),c,w
  3824+ 000946  6EE9               	movwf	c:fsr0l
  3825+ 000948  0E00               	movlw	high(02h)
  3826+ 00094A  2010               	addwfc	((c:15+1)),c,w
  3827+ 00094C  6EEA               	movwf	1+c:fsr0l
  3828+ 00094E  0105               	movlb	5	; () banked
  3829+ 000950  0E20               	movlw	low(1312)	;volatile
  3830+ 000952  6EEE               	movwf	postinc0
  3831+ 000954  0105               	movlb	5	; () banked
  3832+ 000956  0E05               	movlw	high(1312)	;volatile
  3833+ 000958  6EED               	movwf	postdec0
  3834+                          	line	2004
  3835+                          ;usb_device.c: 2004: pBDTEntryIn[0]->STAT.Val = 
      +                          0x80|0x40|0x08;
  3836+ 00095A  C00F FFE9          	movff	(c:15),fsr0l
  3837+ 00095E  C010 FFEA          	movff	(c:15+1),fsr0h
  3838+ 000962  0EC8               	movlw	low(0C8h)
  3839+ 000964  6EEF               	movwf	indf0
  3840+                          	line	2005
  3841+                          ;usb_device.c: 2005: }
  3842+ 000966  EFE3  F004         	goto	l632
  3843+                          	line	2006
  3844+                          	
  3845+ 00096A                     l634:		; BSR set to: ?
  3846+                          
  3847+                          	line	2008
  3848+                          ;usb_device.c: 2006: else
  3849+                          ;usb_device.c: 2007: {
  3850+                          ;usb_device.c: 2008: controlTransferState = 2;
  3851+ 00096A  0101               	movlb	1	; () banked
  3852+ 00096C  6F06               	movwf	(??_USBCtrlEPServiceComplete+0+0)&0ffh
  3853+ 00096E  0E02               	movlw	low(02h)
  3854+ 000970  6E26               	movwf	((c:38)),c
  3855+ 000972  0101               	movlb	1	; () banked
  3856+ 000974  5106               	movf	(??_USBCtrlEPServiceComplete+0+0)&0ffh,w
  3857+                          	line	2018
  3858+                          ;usb_device.c: 2018: pBDTEntryIn[0]->CNT = 0;
  3859+ 000976  0E01               	movlw	low(01h)
  3860+ 000978  240F               	addwf	((c:15)),c,w
  3861+ 00097A  6EE9               	movwf	c:fsr0l
  3862+ 00097C  0E00               	movlw	high(01h)
  3863+ 00097E  2010               	addwfc	((c:15+1)),c,w
  3864+ 000980  6EEA               	movwf	1+c:fsr0l
  3865+ 000982  0E00               	movlw	low(0)
  3866+ 000984  6EEF               	movwf	indf0
  3867+                          	line	2019
  3868+                          ;usb_device.c: 2019: pBDTEntryIn[0]->STAT.Val = 
      +                          0x80|0x40|0x08;
  3869+ 000986  C00F FFE9          	movff	(c:15),fsr0l
  3870+ 00098A  C010 FFEA          	movff	(c:15+1),fsr0h
  3871+ 00098E  0EC8               	movlw	low(0C8h)
  3872+ 000990  6EEF               	movwf	indf0
  3873+                          	line	2024
  3874+                          ;usb_device.c: 2024: pBDTEntryEP0OutNext->CNT = 
      +                          8;
  3875+ 000992  0E01               	movlw	low(01h)
  3876+ 000994  2413               	addwf	((c:19)),c,w
  3877+ 000996  6EE9               	movwf	c:fsr0l
  3878+ 000998  0E00               	movlw	high(01h)
  3879+ 00099A  2014               	addwfc	((c:19+1)),c,w
  3880+ 00099C  6EEA               	movwf	1+c:fsr0l
  3881+ 00099E  0E08               	movlw	low(08h)
  3882+ 0009A0  6EEF               	movwf	indf0
  3883+                          	line	2025
  3884+                          ;usb_device.c: 2025: pBDTEntryEP0OutNext->ADR = 
      +                          (BYTE*)&CtrlTrfData;
  3885+ 0009A2  0E02               	movlw	low(02h)
  3886+ 0009A4  2413               	addwf	((c:19)),c,w
  3887+ 0009A6  6EE9               	movwf	c:fsr0l
  3888+ 0009A8  0E00               	movlw	high(02h)
  3889+ 0009AA  2014               	addwfc	((c:19+1)),c,w
  3890+ 0009AC  6EEA               	movwf	1+c:fsr0l
  3891+ 0009AE  0105               	movlb	5	; () banked
  3892+ 0009B0  0E20               	movlw	low(1312)	;volatile
  3893+ 0009B2  6EEE               	movwf	postinc0
  3894+ 0009B4  0105               	movlb	5	; () banked
  3895+ 0009B6  0E05               	movlw	high(1312)	;volatile
  3896+ 0009B8  6EED               	movwf	postdec0
  3897+                          	line	2026
  3898+                          ;usb_device.c: 2026: pBDTEntryEP0OutNext->STAT.V
      +                          al = 0x80|0x40|0x08;
  3899+ 0009BA  C013 FFE9          	movff	(c:19),fsr0l
  3900+ 0009BE  C014 FFEA          	movff	(c:19+1),fsr0h
  3901+ 0009C2  0EC8               	movlw	low(0C8h)
  3902+ 0009C4  6EEF               	movwf	indf0
  3903+                          	line	2027
  3904+                          	
  3905+ 0009C6                     l636:		; BSR set to: ?
  3906+                          
  3907+                          	line	2028
  3908+                          	
  3909+ 0009C6                     l633:		; BSR set to: ?
  3910+                          
  3911+                          	line	2029
  3912+                          	
  3913+ 0009C6                     l632:		; BSR set to: ?
  3914+                          
  3915+                          	line	2031
  3916+                          ;usb_device.c: 2027: }
  3917+                          ;usb_device.c: 2028: }
  3918+                          ;usb_device.c: 2029: }
  3919+                          ;usb_device.c: 2031: }
  3920+ 0009C6                     l628:
  3921+                          			; BSR set to: ?
  3922+                          
  3923+ 0009C6  0012               	return
  3924+                          	opt stack 0
  3925+                          GLOBAL __end_of_USBCtrlEPServiceComplete
  3926+ 0009C8                     	__end_of_USBCtrlEPServiceComplete:
  3927+                          	FNSIZE	_USBCtrlEPServiceComplete,1,0
  3928+                          ; =============== function _USBCtrlEPServiceComp
      +                          lete ends ============
  3929+                          
  3930+                          	signat	_USBCtrlEPServiceComplete,88
  3931+                          	global	_USBStdGetDscHandler
  3932+                          	global	??_USBStdGetDscHandler
  3933+                          	global	?_USBStdGetDscHandler
  3934+                          
  3935+                          ; *************** function _USBStdGetDscHandler 
      +                          *****************
  3936+                          ; Defined at:
  3937+                          ;		line 1764 in file "X:\mplab\mini project\new 
      +                          untouched\USB Io board fimware source\usb_device
      +                          .c"
  3938+                          ; Parameters:
  3939+                          ;		None
  3940+                          ; Auto variables:
  3941+                          ;		None
  3942+                          ; Return value:
  3943+                          ;		type: void 
  3944+                          ;		size: 0
  3945+                          ; Registers used:
  3946+                          ;		wreg, fsr0l, fsr0h, status,2, status,0, tblpt
      +                          rl, tblptrh, tblptru, tablat, prodl, prodh
  3947+                          ; Tracked objects:
  3948+                          ;		On entry : 0/0
  3949+                          ;		On exit  : 0/0
  3950+                          ;		Unchanged: 0/0
  3951+                          ; Data sizes:
  3952+                          ;		Autos:    0
  3953+                          ;		Params:   0
  3954+                          ;		Temp:     2
  3955+                          ;		Total:    2
  3956+                          ; This function calls:
  3957+                          ;		Nothing
  3958+                          ; This function is called by:
  3959+                          ;		_USBCheckStdRequest
  3960+                          ; This function uses a non-reentrant model
  3961+                          ; 
  3962+                                  psect   text16,class=CODE,space=0,reloc=
      +                          2
  3963+                          
  3964+                          	opt lm
  3965+                          	file	"X:\mplab\mini project\new untouched\USB I
      +                          o board fimware source\usb_device.c"
  3966+                          	line	1764
  3967+ 000000                     	__size_of_USBStdGetDscHandler	equ	__end_of_USBS
      +                          tdGetDscHandler-_USBStdGetDscHandler
  3968+                          ;usb_device.c: 1763: void USBStdGetDscHandler(vo
      +                          id)
  3969+                          ;usb_device.c: 1764: {
  3970+                          	
  3971+ 00140C                     _USBStdGetDscHandler:		; BSR set to: ?
  3972+                          
  3973+                          	opt stack 24
  3974+                          	line	1765
  3975+                          ;usb_device.c: 1765: if(SetupPkt.bmRequestType =
      +                          = 0x80)
  3976+ 00140C  0105               	movlb	5	; () banked
  3977+ 00140E  0105               	movlb	5	; () banked
  3978+ 001410  5100               	movf	((1280))&0ffh,w	;volatile
  3979+ 001412  0A80               	xorlw	128
  3980+                          
  3981+ 001414  A4D8               	btfss	status,2
  3982+ 001416  EF0F  F00A         	goto	u3561
  3983+ 00141A  EF11  F00A         	goto	u3560
  3984+ 00141E                     u3561:
  3985+ 00141E  EF9F  F00A         	goto	l607
  3986+ 001422                     u3560:
  3987+                          	line	1767
  3988+                          ;usb_device.c: 1766: {
  3989+                          ;usb_device.c: 1767: inPipes[0].info.Val = 0x00 
      +                          | 0x80 | 0x40;
  3990+ 001422  0101               	movlb	1	; () banked
  3991+ 001424  6F07               	movwf	(??_USBStdGetDscHandler+0+0)&0ffh
  3992+ 001426  0EC0               	movlw	low(0C0h)
  3993+ 001428  6E03               	movwf	(0+((c:0)+03h)),c
  3994+ 00142A  0101               	movlb	1	; () banked
  3995+ 00142C  5107               	movf	(??_USBStdGetDscHandler+0+0)&0ffh,w
  3996+                          	line	1769
  3997+                          ;usb_device.c: 1769: switch(SetupPkt.bDescriptor
      +                          Type)
  3998+ 00142E  EF94  F00A         	goto	l609
  3999+                          	line	1771
  4000+                          ;usb_device.c: 1770: {
  4001+                          ;usb_device.c: 1771: case 0x01:
  4002+                          	
  4003+ 001432                     l610:		; BSR set to: ?
  4004+                          
  4005+                          	line	1775
  4006+                          ;usb_device.c: 1775: inPipes[0].pSrc.bRom = (con
      +                          st BYTE*)&device_dsc;
  4007+ 001432  0EA5               	movlw	low(_device_dsc)
  4008+ 001434  6E00               	movwf	((c:0)),c
  4009+ 001436  0E04               	movlw	high(_device_dsc)
  4010+ 001438  6E01               	movwf	((c:0+1)),c
  4011+                          	line	1777
  4012+                          ;usb_device.c: 1777: inPipes[0].wCount.Val = siz
      +                          eof(device_dsc);
  4013+ 00143A  0E12               	movlw	low(012h)
  4014+ 00143C  6E04               	movwf	(0+((c:0)+04h)),c
  4015+ 00143E  0E00               	movlw	high(012h)
  4016+ 001440  6E05               	movwf	(1+((c:0)+04h)),c
  4017+                          	line	1778
  4018+                          ;usb_device.c: 1778: break;
  4019+ 001442  EF9F  F00A         	goto	l607
  4020+                          	line	1779
  4021+                          ;usb_device.c: 1779: case 0x02:
  4022+                          	
  4023+ 001446                     l611:		; BSR set to: ?
  4024+                          
  4025+                          	line	1783
  4026+                          ;usb_device.c: 1783: inPipes[0].pSrc.bRom = *(US
      +                          B_CD_Ptr+SetupPkt.bDscIndex);
  4027+ 001446  0105               	movlb	5	; () banked
  4028+ 001448  0105               	movlb	5	; () banked
  4029+ 00144A  5102               	movf	(0+(1280+02h))&0ffh,w	;volatile
  4030+ 00144C  0D02               	mullw	02h
  4031+ 00144E  0EC1               	movlw	low((_USB_CD_Ptr))
  4032+ 001450  24F3               	addwf	(prodl),c,w
  4033+ 001452  6EF6               	movwf	tblptrl
  4034+ 001454  6AF7               	clrf	tblptrh
  4035+ 001456  0E04               	movlw	high((_USB_CD_Ptr))
  4036+ 001458  22F7               	addwfc	tblptrh
  4037+ 00145A  0009               	tblrd*+
  4038+                          	
  4039+ 00145C  CFF5 F000          	movff	tablat,(c:0)
  4040+ 001460  000A               	tblrd*-
  4041+                          	
  4042+ 001462  CFF5 F001          	movff	tablat,(c:0+1)
  4043+                          
  4044+                          	line	1785
  4045+                          ;usb_device.c: 1785: inPipes[0].wCount.Val = *(i
      +                          nPipes[0].pSrc.wRom+1);
  4046+ 001466  0E02               	movlw	02h
  4047+ 001468  2400               	addwf	((c:0)),c,w
  4048+ 00146A  0101               	movlb	1	; () banked
  4049+ 00146C  6F07               	movwf	(??_USBStdGetDscHandler+0+0)&0ffh
  4050+ 00146E  0E00               	movlw	0
  4051+ 001470  2001               	addwfc	((c:0+1)),c,w
  4052+ 001472  0101               	movlb	1	; () banked
  4053+ 001474  6F08               	movwf	(??_USBStdGetDscHandler+0+0+1)&0ffh
  4054+ 001476  C107  FFF6         	movff	??_USBStdGetDscHandler+0+0,tblptrl
  4055+ 00147A  C108  FFF7         	movff	??_USBStdGetDscHandler+0+1,tblptrh
  4056+ 00147E  6AF8               	clrf	tblptru
  4057+ 001480  0E03               	movlw	high __ramtop-1
  4058+ 001482  64F7               	cpfsgt	tblptrh
  4059+ 001484  D007               	bra	u3577
  4060+ 001486  0009               	tblrd	*+
  4061+                          	
  4062+                          
  4063+ 001488  CFF5 F004          	movff	tablat,0+((c:0)+04h)
  4064+ 00148C  0009               	tblrd	*+
  4065+                          	
  4066+ 00148E  CFF5 F005          	movff	tablat,1+0+((c:0)+04h)
  4067+ 001492  D008               	bra	u3570
  4068+ 001494                     u3577:
  4069+ 001494  CFF6 FFE9          	movff	tblptrl,fsr0l
  4070+ 001498  CFF7 FFEA          	movff	tblptrh,fsr0h
  4071+ 00149C  CFEE F004          	movff	postinc0,0+((c:0)+04h)
  4072+ 0014A0  CFEE F005          	movff	postinc0,1+0+((c:0)+04h)
  4073+ 0014A4                     u3570:
  4074+                          	
  4075+                          	line	1786
  4076+                          ;usb_device.c: 1786: break;
  4077+ 0014A4  EF9F  F00A         	goto	l607
  4078+                          	line	1787
  4079+                          ;usb_device.c: 1787: case 0x03:
  4080+                          	
  4081+ 0014A8                     l612:		; BSR set to: ?
  4082+                          
  4083+                          	line	1791
  4084+                          ;usb_device.c: 1791: if(SetupPkt.bDscIndex<3)
  4085+ 0014A8  0E03               	movlw	(03h)&0ffh
  4086+ 0014AA  0105               	movlb	5	; () banked
  4087+ 0014AC  0105               	movlb	5	; () banked
  4088+ 0014AE  6102               	cpfslt	(0+(1280+02h))&0ffh	;volatile
  4089+ 0014B0  EF5C  F00A         	goto	u3581
  4090+ 0014B4  EF5E  F00A         	goto	u3580
  4091+ 0014B8                     u3581:
  4092+ 0014B8  EF84  F00A         	goto	l613
  4093+ 0014BC                     u3580:
  4094+                          	line	1794
  4095+                          ;usb_device.c: 1792: {
  4096+                          ;usb_device.c: 1794: inPipes[0].pSrc.bRom = *(US
      +                          B_SD_Ptr+SetupPkt.bDscIndex);
  4097+ 0014BC  0105               	movlb	5	; () banked
  4098+ 0014BE  0105               	movlb	5	; () banked
  4099+ 0014C0  5102               	movf	(0+(1280+02h))&0ffh,w	;volatile
  4100+ 0014C2  0D02               	mullw	02h
  4101+ 0014C4  0EB7               	movlw	low((_USB_SD_Ptr))
  4102+ 0014C6  24F3               	addwf	(prodl),c,w
  4103+ 0014C8  6EF6               	movwf	tblptrl
  4104+ 0014CA  6AF7               	clrf	tblptrh
  4105+ 0014CC  0E04               	movlw	high((_USB_SD_Ptr))
  4106+ 0014CE  22F7               	addwfc	tblptrh
  4107+ 0014D0  0009               	tblrd*+
  4108+                          	
  4109+ 0014D2  CFF5 F000          	movff	tablat,(c:0)
  4110+ 0014D6  000A               	tblrd*-
  4111+                          	
  4112+ 0014D8  CFF5 F001          	movff	tablat,(c:0+1)
  4113+                          
  4114+                          	line	1796
  4115+                          ;usb_device.c: 1796: inPipes[0].wCount.Val = *in
      +                          Pipes[0].pSrc.bRom;
  4116+ 0014DC  5000               	movf	((c:0)),c,w
  4117+ 0014DE  6EF6               	movwf	tblptrl
  4118+ 0014E0  6EE9               	movwf	fsr0l
  4119+ 0014E2  0E03               	movlw	high __ramtop-1
  4120+ 0014E4  6EEA               	movwf	fsr0h
  4121+ 0014E6  5001               	movf	((c:0+1)),c,w
  4122+ 0014E8  64EA               	cpfsgt	fsr0h
  4123+ 0014EA  D003               	bra	u3597
  4124+ 0014EC  6EEA               	movwf	fsr0h
  4125+ 0014EE  50EF               	movf	indf0,w
  4126+ 0014F0  D003               	bra	u3590
  4127+ 0014F2                     u3597:
  4128+ 0014F2  6EF7               	movwf	tblptrh
  4129+ 0014F4  0008               	tblrd	*
  4130+                          	
  4131+ 0014F6  50F5               	movf	tablat,w
  4132+ 0014F8                     u3590:
  4133+ 0014F8  0101               	movlb	1	; () banked
  4134+ 0014FA  6F07               	movwf	(??_USBStdGetDscHandler+0+0)&0ffh
  4135+ 0014FC  0101               	movlb	1	; () banked
  4136+ 0014FE  5107               	movf	((??_USBStdGetDscHandler+0+0))&0ffh,w
  4137+ 001500  6E04               	movwf	(0+((c:0)+04h)),c
  4138+ 001502  6A05               	clrf	(1+((c:0)+04h)),c
  4139+                          	line	1797
  4140+                          ;usb_device.c: 1797: }
  4141+ 001504  EF8A  F00A         	goto	l614
  4142+                          	line	1798
  4143+                          	
  4144+ 001508                     l613:		; BSR set to: ?
  4145+                          
  4146+                          	line	1800
  4147+                          ;usb_device.c: 1798: else
  4148+                          ;usb_device.c: 1799: {
  4149+                          ;usb_device.c: 1800: inPipes[0].info.Val = 0;
  4150+ 001508  0101               	movlb	1	; () banked
  4151+ 00150A  6F07               	movwf	(??_USBStdGetDscHandler+0+0)&0ffh
  4152+ 00150C  0E00               	movlw	low(0)
  4153+ 00150E  6E03               	movwf	(0+((c:0)+03h)),c
  4154+ 001510  0101               	movlb	1	; () banked
  4155+ 001512  5107               	movf	(??_USBStdGetDscHandler+0+0)&0ffh,w
  4156+                          	line	1801
  4157+                          	
  4158+ 001514                     l614:		; BSR set to: ?
  4159+                          
  4160+                          	line	1802
  4161+                          ;usb_device.c: 1801: }
  4162+                          ;usb_device.c: 1802: break;
  4163+ 001514  EF9F  F00A         	goto	l607
  4164+                          	line	1803
  4165+                          ;usb_device.c: 1803: default:
  4166+                          	
  4167+ 001518                     l615:		; BSR set to: ?
  4168+                          
  4169+                          	line	1804
  4170+                          ;usb_device.c: 1804: inPipes[0].info.Val = 0;
  4171+ 001518  0101               	movlb	1	; () banked
  4172+ 00151A  6F07               	movwf	(??_USBStdGetDscHandler+0+0)&0ffh
  4173+ 00151C  0E00               	movlw	low(0)
  4174+ 00151E  6E03               	movwf	(0+((c:0)+03h)),c
  4175+ 001520  0101               	movlb	1	; () banked
  4176+ 001522  5107               	movf	(??_USBStdGetDscHandler+0+0)&0ffh,w
  4177+                          	line	1805
  4178+                          ;usb_device.c: 1805: break;
  4179+ 001524  EF9F  F00A         	goto	l607
  4180+                          	line	1769
  4181+                          	
  4182+ 001528                     l609:		; BSR set to: ?
  4183+                          
  4184+ 001528  0105               	movlb	5	; () banked
  4185+ 00152A  0105               	movlb	5	; () banked
  4186+ 00152C  5103               	movf	(0+(1280+03h))&0ffh,w	;volatile
  4187+ 00152E  0A01               	xorlw	1 ^ 0
  4188+ 001530  E080               	bz	l610
  4189+ 001532  0A03               	xorlw	2 ^ 1
  4190+ 001534  E088               	bz	l611
  4191+ 001536  0A01               	xorlw	3 ^ 2
  4192+ 001538  E0B7               	bz	l612
  4193+ 00153A  EF8C  F00A         	goto	l615
  4194+                          
  4195+                          	line	1807
  4196+                          	
  4197+ 00153E                     l607:		; BSR set to: ?
  4198+                          
  4199+                          	line	1808
  4200+                          ;usb_device.c: 1807: }
  4201+                          ;usb_device.c: 1808: }
  4202+ 00153E                     l606:
  4203+                          			; BSR set to: ?
  4204+                          
  4205+ 00153E  0012               	return
  4206+                          	opt stack 0
  4207+                          GLOBAL __end_of_USBStdGetDscHandler
  4208+ 001540                     	__end_of_USBStdGetDscHandler:
  4209+                          	FNSIZE	_USBStdGetDscHandler,2,0
  4210+                          ; =============== function _USBStdGetDscHandler 
      +                          ends ============
  4211+                          
  4212+                          	signat	_USBStdGetDscHandler,88
  4213+                          	global	_USBStdFeatureReqHandler
  4214+                          	global	??_USBStdFeatureReqHandler
  4215+                          	global	?_USBStdFeatureReqHandler
  4216+                          
  4217+                          ; *************** function _USBStdFeatureReqHand
      +                          ler *****************
  4218+                          ; Defined at:
  4219+                          ;		line 1625 in file "X:\mplab\mini project\new 
      +                          untouched\USB Io board fimware source\usb_device
      +                          .c"
  4220+                          ; Parameters:
  4221+                          ;		None
  4222+                          ; Auto variables:
  4223+                          ;		pUEP        	       	type: PTR unsigned int ;
      +                           Largest target is 1
  4224+                          ;		 -> UEP0(1), 
  4225+                          ;		p           	       	type: PTR struct __BDT; 
      +                          Largest target is 40
  4226+                          ;		 -> BDT(32), 
  4227+                          ; Return value:
  4228+                          ;		type: void 
  4229+                          ;		size: 0
  4230+                          ; Registers used:
  4231+                          ;		wreg, fsr0l, fsr0h, status,2, status,0, prodl
      +                          , prodh
  4232+                          ; Tracked objects:
  4233+                          ;		On entry : 0/0
  4234+                          ;		On exit  : 0/0
  4235+                          ;		Unchanged: 0/0
  4236+                          ; Data sizes:
  4237+                          ;		Autos:    4
  4238+                          ;		Params:   0
  4239+                          ;		Temp:     3
  4240+                          ;		Total:    7
  4241+                          ; This function calls:
  4242+                          ;		Nothing
  4243+                          ; This function is called by:
  4244+                          ;		_USBCheckStdRequest
  4245+                          ; This function uses a non-reentrant model
  4246+                          ; 
  4247+                                  psect   text17,class=CODE,space=0,reloc=
      +                          2
  4248+                          
  4249+                          	opt lm
  4250+                          	file	"X:\mplab\mini project\new untouched\USB I
      +                          o board fimware source\usb_device.c"
  4251+                          	line	1625
  4252+ 000000                     	__size_of_USBStdFeatureReqHandler	equ	__end_of_
      +                          USBStdFeatureReqHandler-_USBStdFeatureReqHandler
  4253+                          ;usb_device.c: 1624: void USBStdFeatureReqHandle
      +                          r(void)
  4254+                          ;usb_device.c: 1625: {
  4255+                          	
  4256+ 0009C8                     _USBStdFeatureReqHandler:		; BSR set to: ?
  4257+                          
  4258+                          	opt stack 24
  4259+                          	line	1665
  4260+ 0009C8  0105               	movlb	5	; () banked
  4261+ 0009CA  0105               	movlb	5	; () banked
  4262+ 0009CC  0502               	decf	(0+(1280+02h))&0ffh,w	;volatile
  4263+                          
  4264+ 0009CE  A4D8               	btfss	status,2
  4265+ 0009D0  EFEC  F004         	goto	u3601
  4266+ 0009D4  EFEE  F004         	goto	u3600
  4267+ 0009D8                     u3601:
  4268+ 0009D8  EF13  F005         	goto	l596
  4269+ 0009DC                     u3600:
  4270+ 0009DC  0105               	movlb	5	; () banked
  4271+ 0009DE  5100               	movf	((1280))&0ffh,w	;volatile
  4272+ 0009E0  0B1F               	andlw	(1<<5)-1
  4273+ 0009E2  0900               	iorlw	0
  4274+ 0009E4  A4D8               	btfss	status,2
  4275+ 0009E6  EFF7  F004         	goto	u3611
  4276+ 0009EA  EFF9  F004         	goto	u3610
  4277+ 0009EE                     u3611:
  4278+ 0009EE  EF13  F005         	goto	l596
  4279+ 0009F2                     u3610:
  4280+                          	line	1667
  4281+                          ;usb_device.c: 1666: {
  4282+                          ;usb_device.c: 1667: inPipes[0].info.bits.busy =
      +                           1;
  4283+ 0009F2  8E03               	bsf	(0+((c:0)+03h)),c,7
  4284+                          	line	1668
  4285+                          ;usb_device.c: 1668: if(SetupPkt.bRequest == 3)
  4286+ 0009F4  0105               	movlb	5	; () banked
  4287+ 0009F6  0105               	movlb	5	; () banked
  4288+ 0009F8  5101               	movf	(0+(1280+01h))&0ffh,w	;volatile
  4289+ 0009FA  0A03               	xorlw	3
  4290+                          
  4291+ 0009FC  A4D8               	btfss	status,2
  4292+ 0009FE  EF03  F005         	goto	u3621
  4293+ 000A02  EF05  F005         	goto	u3620
  4294+ 000A06                     u3621:
  4295+ 000A06  EF0D  F005         	goto	l597
  4296+ 000A0A                     u3620:
  4297+                          	line	1669
  4298+                          ;usb_device.c: 1669: RemoteWakeup = TRUE;
  4299+ 000A0A  0101               	movlb	1	; () banked
  4300+ 000A0C  6F0B               	movwf	(??_USBStdFeatureReqHandler+4+0)&0ffh
  4301+ 000A0E  0E01               	movlw	low(01h)
  4302+ 000A10  6E2A               	movwf	((c:42)),c
  4303+ 000A12  0101               	movlb	1	; () banked
  4304+ 000A14  510B               	movf	(??_USBStdFeatureReqHandler+4+0)&0ffh,w
  4305+ 000A16  EF13  F005         	goto	l596
  4306+                          	line	1670
  4307+                          	
  4308+ 000A1A                     l597:		; BSR set to: ?
  4309+                          
  4310+                          	line	1671
  4311+                          ;usb_device.c: 1670: else
  4312+                          ;usb_device.c: 1671: RemoteWakeup = FALSE;
  4313+ 000A1A  0101               	movlb	1	; () banked
  4314+ 000A1C  6F0B               	movwf	(??_USBStdFeatureReqHandler+4+0)&0ffh
  4315+ 000A1E  0E00               	movlw	low(0)
  4316+ 000A20  6E2A               	movwf	((c:42)),c
  4317+ 000A22  0101               	movlb	1	; () banked
  4318+ 000A24  510B               	movf	(??_USBStdFeatureReqHandler+4+0)&0ffh,w
  4319+                          	
  4320+ 000A26                     l598:		; BSR set to: ?
  4321+                          
  4322+                          	line	1672
  4323+                          	
  4324+ 000A26                     l596:		; BSR set to: ?
  4325+                          
  4326+                          	line	1676
  4327+                          ;usb_device.c: 1672: }
  4328+                          ;usb_device.c: 1674: if((SetupPkt.bFeature == 0)
      +                          &&
  4329+                          ;usb_device.c: 1675: (SetupPkt.Recipient == (0x0
      +                          2))&&
  4330+                          ;usb_device.c: 1676: (SetupPkt.EPNum != 0))
  4331+ 000A26  0105               	movlb	5	; () banked
  4332+ 000A28  0105               	movlb	5	; () banked
  4333+ 000A2A  6702               	tstfsz	(0+(1280+02h))&0ffh	;volatile
  4334+ 000A2C  EF1A  F005         	goto	u3631
  4335+ 000A30  EF1C  F005         	goto	u3630
  4336+ 000A34                     u3631:
  4337+ 000A34  EFBC  F005         	goto	l599
  4338+ 000A38                     u3630:
  4339+ 000A38  0105               	movlb	5	; () banked
  4340+ 000A3A  5100               	movf	((1280))&0ffh,w	;volatile
  4341+ 000A3C  0B1F               	andlw	(1<<5)-1
  4342+ 000A3E  0A02               	xorlw	02h
  4343+ 000A40  A4D8               	btfss	status,2
  4344+ 000A42  EF25  F005         	goto	u3641
  4345+ 000A46  EF27  F005         	goto	u3640
  4346+ 000A4A                     u3641:
  4347+ 000A4A  EFBC  F005         	goto	l599
  4348+ 000A4E                     u3640:
  4349+ 000A4E  0105               	movlb	5	; () banked
  4350+ 000A50  5104               	movf	(0+(1280+04h))&0ffh,w	;volatile
  4351+ 000A52  0B0F               	andlw	(1<<4)-1
  4352+ 000A54  0900               	iorlw	0
  4353+ 000A56  B4D8               	btfsc	status,2
  4354+ 000A58  EF30  F005         	goto	u3651
  4355+ 000A5C  EF32  F005         	goto	u3650
  4356+ 000A60                     u3651:
  4357+ 000A60  EFBC  F005         	goto	l599
  4358+ 000A64                     u3650:
  4359+                          	line	1678
  4360+                          ;usb_device.c: 1677: {
  4361+                          ;usb_device.c: 1678: inPipes[0].info.bits.busy =
      +                           1;
  4362+ 000A64  8E03               	bsf	(0+((c:0)+03h)),c,7
  4363+                          	line	1681
  4364+                          ;usb_device.c: 1681: if(SetupPkt.EPDir == 0)
  4365+ 000A66  0105               	movlb	5	; () banked
  4366+                          	
  4367+ 000A68  0105               	movlb	5	; () banked
  4368+ 000A6A  BF04               	btfsc	(0+(1280+04h))&0ffh,7	;volatile
  4369+ 000A6C  EF3A  F005         	goto	u3661
  4370+ 000A70  EF3C  F005         	goto	u3660
  4371+ 000A74                     u3661:
  4372+ 000A74  EF4E  F005         	goto	l600
  4373+ 000A78                     u3660:
  4374+                          	line	1683
  4375+                          ;usb_device.c: 1682: {
  4376+                          ;usb_device.c: 1683: p = (BDT_ENTRY*)pBDTEntryOu
      +                          t[SetupPkt.EPNum];
  4377+ 000A78  0105               	movlb	5	; () banked
  4378+ 000A7A  5104               	movf	(0+(1280+04h))&0ffh,w	;volatile
  4379+ 000A7C  0B0F               	andlw	(1<<4)-1
  4380+ 000A7E  0D02               	mullw	02h
  4381+ 000A80  0E17               	movlw	low((c:23))
  4382+ 000A82  24F3               	addwf	(prodl),c,w
  4383+ 000A84  6EE9               	movwf	c:fsr0l
  4384+ 000A86  6AEA               	clrf	1+c:fsr0l
  4385+ 000A88  0E00               	movlw	high((c:23))
  4386+ 000A8A  22EA               	addwfc	1+c:fsr0l
  4387+ 000A8C  0101               	movlb	1	; () banked
  4388+ 000A8E  CFEE F109          	movff	postinc0,(USBStdFeatureReqHandler@p)
  4389+ 000A92  0101               	movlb	1	; () banked
  4390+ 000A94  CFED F10A          	movff	postdec0,(USBStdFeatureReqHandler@p+1)
  4391+                          	line	1684
  4392+                          ;usb_device.c: 1684: }
  4393+ 000A98  EF5E  F005         	goto	l601
  4394+                          	line	1685
  4395+                          	
  4396+ 000A9C                     l600:		; BSR set to: ?
  4397+                          
  4398+                          	line	1687
  4399+                          ;usb_device.c: 1685: else
  4400+                          ;usb_device.c: 1686: {
  4401+                          ;usb_device.c: 1687: p = (BDT_ENTRY*)pBDTEntryIn
      +                          [SetupPkt.EPNum];
  4402+ 000A9C  0105               	movlb	5	; () banked
  4403+ 000A9E  5104               	movf	(0+(1280+04h))&0ffh,w	;volatile
  4404+ 000AA0  0B0F               	andlw	(1<<4)-1
  4405+ 000AA2  0D02               	mullw	02h
  4406+ 000AA4  0E0F               	movlw	low((c:15))
  4407+ 000AA6  24F3               	addwf	(prodl),c,w
  4408+ 000AA8  6EE9               	movwf	c:fsr0l
  4409+ 000AAA  6AEA               	clrf	1+c:fsr0l
  4410+ 000AAC  0E00               	movlw	high((c:15))
  4411+ 000AAE  22EA               	addwfc	1+c:fsr0l
  4412+ 000AB0  0101               	movlb	1	; () banked
  4413+ 000AB2  CFEE F109          	movff	postinc0,(USBStdFeatureReqHandler@p)
  4414+ 000AB6  0101               	movlb	1	; () banked
  4415+ 000AB8  CFED F10A          	movff	postdec0,(USBStdFeatureReqHandler@p+1)
  4416+                          	line	1688
  4417+                          	
  4418+ 000ABC                     l601:		; BSR set to: ?
  4419+                          
  4420+                          	line	1691
  4421+                          ;usb_device.c: 1688: }
  4422+                          ;usb_device.c: 1691: if(SetupPkt.bRequest == 3)
  4423+ 000ABC  0105               	movlb	5	; () banked
  4424+ 000ABE  0105               	movlb	5	; () banked
  4425+ 000AC0  5101               	movf	(0+(1280+01h))&0ffh,w	;volatile
  4426+ 000AC2  0A03               	xorlw	3
  4427+                          
  4428+ 000AC4  A4D8               	btfss	status,2
  4429+ 000AC6  EF67  F005         	goto	u3671
  4430+ 000ACA  EF69  F005         	goto	u3670
  4431+ 000ACE                     u3671:
  4432+ 000ACE  EF71  F005         	goto	l602
  4433+ 000AD2                     u3670:
  4434+                          	line	1694
  4435+                          ;usb_device.c: 1692: {
  4436+                          ;usb_device.c: 1694: p->STAT.Val = 0x80|0x04;
  4437+ 000AD2  C109  FFE9         	movff	(USBStdFeatureReqHandler@p),fsr0l
  4438+ 000AD6  C10A  FFEA         	movff	(USBStdFeatureReqHandler@p+1),fsr0h
  4439+ 000ADA  0E84               	movlw	low(084h)
  4440+ 000ADC  6EEF               	movwf	indf0
  4441+                          	line	1695
  4442+                          ;usb_device.c: 1695: }
  4443+ 000ADE  EFBC  F005         	goto	l599
  4444+                          	line	1696
  4445+                          	
  4446+ 000AE2                     l602:		; BSR set to: ?
  4447+                          
  4448+                          	line	1704
  4449+                          ;usb_device.c: 1696: else
  4450+                          ;usb_device.c: 1697: {
  4451+                          ;usb_device.c: 1704: pUEP = (unsigned int*)(&UEP
      +                          0+SetupPkt.EPNum);
  4452+ 000AE2  0105               	movlb	5	; () banked
  4453+ 000AE4  5104               	movf	(0+(1280+04h))&0ffh,w	;volatile
  4454+ 000AE6  0B0F               	andlw	(1<<4)-1
  4455+ 000AE8  0101               	movlb	1	; () banked
  4456+ 000AEA  6F0B               	movwf	(??_USBStdFeatureReqHandler+4+0)&0ffh
  4457+ 000AEC  0E70               	movlw	low((c:3952))	;volatile
  4458+ 000AEE  0101               	movlb	1	; () banked
  4459+ 000AF0  6F0C               	movwf	(??_USBStdFeatureReqHandler+5+0)&0ffh
  4460+ 000AF2  0E0F               	movlw	high((c:3952))	;volatile
  4461+ 000AF4  6F0D               	movwf	(??_USBStdFeatureReqHandler+5+0+1)&0ffh
  4462+ 000AF6  0101               	movlb	1	; () banked
  4463+ 000AF8  510B               	movf	((??_USBStdFeatureReqHandler+4+0))&0ffh,w
  4464+ 000AFA  0101               	movlb	1	; () banked
  4465+ 000AFC  270C               	addwf	(??_USBStdFeatureReqHandler+5+0)&0ffh
  4466+ 000AFE  6AE8               	clrf	wreg
  4467+ 000B00  0101               	movlb	1	; () banked
  4468+ 000B02  BF0B               	btfsc	((??_USBStdFeatureReqHandler+4+0))&0ffh,7
  4469+ 000B04  68E8               	setf	wreg
  4470+ 000B06  0101               	movlb	1	; () banked
  4471+ 000B08  230D               	addwfc	(??_USBStdFeatureReqHandler+5+1)&0ffh
  4472+ 000B0A  C10C  F107         	movff	??_USBStdFeatureReqHandler+5+0,(USBStdFea
      +                          tureReqHandler@pUEP)
  4473+ 000B0E  C10D  F108         	movff	??_USBStdFeatureReqHandler+5+1,(USBStdFea
      +                          tureReqHandler@pUEP+1)
  4474+                          	line	1708
  4475+                          ;usb_device.c: 1708: *pUEP &= ~0x0001;
  4476+ 000B12  C107  FFE9         	movff	(USBStdFeatureReqHandler@pUEP),fsr0l
  4477+ 000B16  C108  FFEA         	movff	(USBStdFeatureReqHandler@pUEP+1),fsr0h
  4478+ 000B1A  0EFE               	movlw	low(0FFFEh)
  4479+ 000B1C  16EE               	andwf	postinc0
  4480+ 000B1E  0EFF               	movlw	high(0FFFEh)
  4481+ 000B20  16ED               	andwf	postdec0
  4482+                          	line	1710
  4483+                          ;usb_device.c: 1710: if(SetupPkt.EPDir == 1)
  4484+ 000B22  0105               	movlb	5	; () banked
  4485+                          	
  4486+ 000B24  0105               	movlb	5	; () banked
  4487+ 000B26  AF04               	btfss	(0+(1280+04h))&0ffh,7	;volatile
  4488+ 000B28  EF98  F005         	goto	u3681
  4489+ 000B2C  EF9A  F005         	goto	u3680
  4490+ 000B30                     u3681:
  4491+ 000B30  EFAC  F005         	goto	l604
  4492+ 000B34                     u3680:
  4493+                          	line	1716
  4494+                          ;usb_device.c: 1711: {
  4495+                          ;usb_device.c: 1716: p->STAT.Val = 0x00|0x00;
  4496+ 000B34  C109  FFE9         	movff	(USBStdFeatureReqHandler@p),fsr0l
  4497+ 000B38  C10A  FFEA         	movff	(USBStdFeatureReqHandler@p+1),fsr0h
  4498+ 000B3C  0E00               	movlw	low(0)
  4499+ 000B3E  6EEF               	movwf	indf0
  4500+                          	line	1718
  4501+                          ;usb_device.c: 1718: ((BYTE_VAL*)&p)->Val ^= 0x0
      +                          004;
  4502+ 000B40  0E04               	movlw	(04h)&0ffh
  4503+ 000B42  0101               	movlb	1	; () banked
  4504+ 000B44  0101               	movlb	1	; () banked
  4505+ 000B46  1B09               	xorwf	((USBStdFeatureReqHandler@p))&0ffh
  4506+                          	line	1719
  4507+                          ;usb_device.c: 1719: p->STAT.Val = 0x00|0x40;
  4508+ 000B48  C109  FFE9         	movff	(USBStdFeatureReqHandler@p),fsr0l
  4509+ 000B4C  C10A  FFEA         	movff	(USBStdFeatureReqHandler@p+1),fsr0h
  4510+ 000B50  0E40               	movlw	low(040h)
  4511+ 000B52  6EEF               	movwf	indf0
  4512+                          	line	1723
  4513+                          ;usb_device.c: 1723: }
  4514+ 000B54  EFBC  F005         	goto	l599
  4515+                          	line	1724
  4516+                          	
  4517+ 000B58                     l604:		; BSR set to: ?
  4518+                          
  4519+                          	line	1733
  4520+                          ;usb_device.c: 1724: else
  4521+                          ;usb_device.c: 1725: {
  4522+                          ;usb_device.c: 1733: p->STAT.Val = 0x80|0x00|0x0
      +                          8;
  4523+ 000B58  C109  FFE9         	movff	(USBStdFeatureReqHandler@p),fsr0l
  4524+ 000B5C  C10A  FFEA         	movff	(USBStdFeatureReqHandler@p+1),fsr0h
  4525+ 000B60  0E88               	movlw	low(088h)
  4526+ 000B62  6EEF               	movwf	indf0
  4527+                          	line	1735
  4528+                          ;usb_device.c: 1735: ((BYTE_VAL*)&p)->Val ^= 0x0
      +                          004;
  4529+ 000B64  0E04               	movlw	(04h)&0ffh
  4530+ 000B66  0101               	movlb	1	; () banked
  4531+ 000B68  0101               	movlb	1	; () banked
  4532+ 000B6A  1B09               	xorwf	((USBStdFeatureReqHandler@p))&0ffh
  4533+                          	line	1736
  4534+                          ;usb_device.c: 1736: p->STAT.Val = 0x80|0x40|0x0
      +                          8;
  4535+ 000B6C  C109  FFE9         	movff	(USBStdFeatureReqHandler@p),fsr0l
  4536+ 000B70  C10A  FFEA         	movff	(USBStdFeatureReqHandler@p+1),fsr0h
  4537+ 000B74  0EC8               	movlw	low(0C8h)
  4538+ 000B76  6EEF               	movwf	indf0
  4539+                          	line	1741
  4540+                          	
  4541+ 000B78                     l605:		; BSR set to: ?
  4542+                          
  4543+                          	line	1742
  4544+                          	
  4545+ 000B78                     l603:		; BSR set to: ?
  4546+                          
  4547+                          	line	1744
  4548+                          	
  4549+ 000B78                     l599:		; BSR set to: ?
  4550+                          
  4551+                          	line	1745
  4552+                          ;usb_device.c: 1741: }
  4553+                          ;usb_device.c: 1742: }
  4554+                          ;usb_device.c: 1744: }
  4555+                          ;usb_device.c: 1745: }
  4556+ 000B78                     l595:
  4557+                          			; BSR set to: ?
  4558+                          
  4559+ 000B78  0012               	return
  4560+                          	opt stack 0
  4561+                          GLOBAL __end_of_USBStdFeatureReqHandler
  4562+ 000B7A                     	__end_of_USBStdFeatureReqHandler:
  4563+                          	FNSIZE	_USBStdFeatureReqHandler,7,0
  4564+                          ; =============== function _USBStdFeatureReqHand
      +                          ler ends ============
  4565+                          
  4566+                          	signat	_USBStdFeatureReqHandler,88
  4567+                          	global	_USBCtrlTrfTxService
  4568+                          	global	??_USBCtrlTrfTxService
  4569+                          	global	?_USBCtrlTrfTxService
  4570+                          
  4571+                          ; *************** function _USBCtrlTrfTxService 
      +                          *****************
  4572+                          ; Defined at:
  4573+                          ;		line 2058 in file "X:\mplab\mini project\new 
      +                          untouched\USB Io board fimware source\usb_device
      +                          .c"
  4574+                          ; Parameters:
  4575+                          ;		None
  4576+                          ; Auto variables:
  4577+                          ;		byteToSend  	       	type: struct .
  4578+                          ; Return value:
  4579+                          ;		type: void 
  4580+                          ;		size: 0
  4581+                          ; Registers used:
  4582+                          ;		wreg, fsr0l, fsr0h, fsr1l, fsr1h, status,2, s
      +                          tatus,0, tblptrl, tblptrh, tblptru, tablat
  4583+                          ; Tracked objects:
  4584+                          ;		On entry : 0/0
  4585+                          ;		On exit  : 0/0
  4586+                          ;		Unchanged: 0/0
  4587+                          ; Data sizes:
  4588+                          ;		Autos:    2
  4589+                          ;		Params:   0
  4590+                          ;		Temp:     1
  4591+                          ;		Total:    3
  4592+                          ; This function calls:
  4593+                          ;		Nothing
  4594+                          ; This function is called by:
  4595+                          ;		_USBCtrlTrfInHandler
  4596+                          ;		_USBCtrlEPServiceComplete
  4597+                          ; This function uses a non-reentrant model
  4598+                          ; 
  4599+                                  psect   text18,class=CODE,space=0,reloc=
      +                          2
  4600+                          
  4601+                          	opt lm
  4602+                          	file	"X:\mplab\mini project\new untouched\USB I
      +                          o board fimware source\usb_device.c"
  4603+                          	line	2058
  4604+ 000000                     	__size_of_USBCtrlTrfTxService	equ	__end_of_USBC
      +                          trlTrfTxService-_USBCtrlTrfTxService
  4605+                          ;usb_device.c: 2057: void USBCtrlTrfTxService(vo
      +                          id)
  4606+                          ;usb_device.c: 2058: {
  4607+                          	
  4608+ 000E8E                     _USBCtrlTrfTxService:		; BSR set to: ?
  4609+                          
  4610+                          	opt stack 24
  4611+                          	line	2064
  4612+                          ;usb_device.c: 2059: WORD_VAL byteToSend;
  4613+                          ;usb_device.c: 2064: if(inPipes[0].wCount.Val < 
      +                          8)
  4614+ 000E8E  0E08               	movlw	08h
  4615+ 000E90  5C04               	subwf	(0+((c:0)+04h)),c,w
  4616+ 000E92  0E00               	movlw	0
  4617+ 000E94  5805               	subwfb	(1+((c:0)+04h)),c,w
  4618+ 000E96  B0D8               	btfsc	status,0
  4619+ 000E98  EF50  F007         	goto	u3691
  4620+ 000E9C  EF52  F007         	goto	u3690
  4621+ 000EA0                     u3691:
  4622+ 000EA0  EF75  F007         	goto	l638
  4623+ 000EA4                     u3690:
  4624+                          	line	2066
  4625+                          ;usb_device.c: 2065: {
  4626+                          ;usb_device.c: 2066: byteToSend.Val = inPipes[0]
      +                          .wCount.Val;
  4627+ 000EA4  C004 F107          	movff	0+((c:0)+04h),(USBCtrlTrfTxService@byteTo
      +                          Send)
  4628+ 000EA8  C005 F108          	movff	1+((c:0)+04h),(USBCtrlTrfTxService@byteTo
      +                          Send+1)
  4629+                          	line	2069
  4630+                          ;usb_device.c: 2069: if(shortPacketStatus == 0)
  4631+ 000EAC  6625               	tstfsz	((c:37)),c
  4632+ 000EAE  EF5B  F007         	goto	u3701
  4633+ 000EB2  EF5D  F007         	goto	u3700
  4634+ 000EB6                     u3701:
  4635+ 000EB6  EF65  F007         	goto	l639
  4636+ 000EBA                     u3700:
  4637+                          	line	2071
  4638+                          ;usb_device.c: 2070: {
  4639+                          ;usb_device.c: 2071: shortPacketStatus = 1;
  4640+ 000EBA  0101               	movlb	1	; () banked
  4641+ 000EBC  6F09               	movwf	(??_USBCtrlTrfTxService+2+0)&0ffh
  4642+ 000EBE  0E01               	movlw	low(01h)
  4643+ 000EC0  6E25               	movwf	((c:37)),c
  4644+ 000EC2  0101               	movlb	1	; () banked
  4645+ 000EC4  5109               	movf	(??_USBCtrlTrfTxService+2+0)&0ffh,w
  4646+                          	line	2072
  4647+                          ;usb_device.c: 2072: }
  4648+ 000EC6  EF73  F007         	goto	l640
  4649+                          	line	2073
  4650+                          	
  4651+ 000ECA                     l639:		; BSR set to: ?
  4652+                          
  4653+                          ;usb_device.c: 2073: else if(shortPacketStatus =
      +                          = 1)
  4654+ 000ECA  0425               	decf	((c:37)),c,w
  4655+                          
  4656+ 000ECC  A4D8               	btfss	status,2
  4657+ 000ECE  EF6B  F007         	goto	u3711
  4658+ 000ED2  EF6D  F007         	goto	u3710
  4659+ 000ED6                     u3711:
  4660+ 000ED6  EF73  F007         	goto	l640
  4661+ 000EDA                     u3710:
  4662+                          	line	2075
  4663+                          ;usb_device.c: 2074: {
  4664+                          ;usb_device.c: 2075: shortPacketStatus = 2;
  4665+ 000EDA  0101               	movlb	1	; () banked
  4666+ 000EDC  6F09               	movwf	(??_USBCtrlTrfTxService+2+0)&0ffh
  4667+ 000EDE  0E02               	movlw	low(02h)
  4668+ 000EE0  6E25               	movwf	((c:37)),c
  4669+ 000EE2  0101               	movlb	1	; () banked
  4670+ 000EE4  5109               	movf	(??_USBCtrlTrfTxService+2+0)&0ffh,w
  4671+                          	line	2076
  4672+                          	
  4673+ 000EE6                     l641:		; BSR set to: ?
  4674+                          
  4675+                          	line	2078
  4676+                          	
  4677+ 000EE6                     l640:		; BSR set to: ?
  4678+                          
  4679+                          ;usb_device.c: 2076: }
  4680+                          ;usb_device.c: 2078: }
  4681+ 000EE6  EF7C  F007         	goto	l642
  4682+                          	line	2079
  4683+                          	
  4684+ 000EEA                     l638:		; BSR set to: ?
  4685+                          
  4686+                          	line	2081
  4687+                          ;usb_device.c: 2079: else
  4688+                          ;usb_device.c: 2080: {
  4689+                          ;usb_device.c: 2081: byteToSend.Val = 8;
  4690+ 000EEA  0E08               	movlw	low(08h)
  4691+ 000EEC  0101               	movlb	1	; () banked
  4692+ 000EEE  0101               	movlb	1	; () banked
  4693+ 000EF0  6F07               	movwf	((USBCtrlTrfTxService@byteToSend))&0ffh
  4694+ 000EF2  0E00               	movlw	high(08h)
  4695+ 000EF4  0101               	movlb	1	; () banked
  4696+ 000EF6  6F08               	movwf	((USBCtrlTrfTxService@byteToSend+1))&0ffh
  4697+                          	line	2082
  4698+                          	
  4699+ 000EF8                     l642:		; BSR set to: ?
  4700+                          
  4701+                          	line	2088
  4702+                          ;usb_device.c: 2082: }
  4703+                          ;usb_device.c: 2088: pBDTEntryIn[0]->STAT.BC9 = 
      +                          0;
  4704+ 000EF8  C00F FFE9          	movff	(c:15),fsr0l
  4705+ 000EFC  C010 FFEA          	movff	(c:15+1),fsr0h
  4706+ 000F00  0EFD               	movlw	((0 & ((1<<1)-1))<<1)|not (((1<<1)-1)<<1)
  4707+ 000F02  16EF               	andwf	(indf0)&0ffh
  4708+                          	line	2089
  4709+                          ;usb_device.c: 2089: pBDTEntryIn[0]->STAT.BC8 = 
      +                          0;
  4710+ 000F04  C00F FFE9          	movff	(c:15),fsr0l
  4711+ 000F08  C010 FFEA          	movff	(c:15+1),fsr0h
  4712+ 000F0C  0EFE               	movlw	((0 & ((1<<1)-1))<<0)|not (((1<<1)-1)<<0)
  4713+ 000F0E  16EF               	andwf	(indf0)&0ffh
  4714+                          	line	2093
  4715+                          ;usb_device.c: 2093: pBDTEntryIn[0]->STAT.Val |=
      +                           byteToSend.byte.HB;
  4716+ 000F10  C00F FFE9          	movff	(c:15),fsr0l
  4717+ 000F14  C010 FFEA          	movff	(c:15+1),fsr0h
  4718+ 000F18  0101               	movlb	1	; () banked
  4719+ 000F1A  0101               	movlb	1	; () banked
  4720+ 000F1C  5108               	movf	(0+(USBCtrlTrfTxService@byteToSend+01h))&0
      +                          ffh,w
  4721+ 000F1E  12EF               	iorwf	indf0
  4722+                          	line	2094
  4723+                          ;usb_device.c: 2094: pBDTEntryIn[0]->CNT = byteT
      +                          oSend.byte.LB;
  4724+ 000F20  0E01               	movlw	low(01h)
  4725+ 000F22  240F               	addwf	((c:15)),c,w
  4726+ 000F24  6EE9               	movwf	c:fsr0l
  4727+ 000F26  0E00               	movlw	high(01h)
  4728+ 000F28  2010               	addwfc	((c:15+1)),c,w
  4729+ 000F2A  6EEA               	movwf	1+c:fsr0l
  4730+ 000F2C  0101               	movlb	1	; () banked
  4731+ 000F2E  C107  FFEF         	movff	(USBCtrlTrfTxService@byteToSend),indf0
  4732+                          
  4733+                          	line	2104
  4734+                          ;usb_device.c: 2104: inPipes[0].wCount.Val = inP
      +                          ipes[0].wCount.Val - byteToSend.Val;
  4735+ 000F32  0101               	movlb	1	; () banked
  4736+ 000F34  0101               	movlb	1	; () banked
  4737+ 000F36  5107               	movf	((USBCtrlTrfTxService@byteToSend))&0ffh,w
  4738+ 000F38  5C04               	subwf	(0+((c:0)+04h)),c,w
  4739+                          	
  4740+ 000F3A  6E04               	movwf	(0+((c:0)+04h)),c
  4741+ 000F3C  0101               	movlb	1	; () banked
  4742+ 000F3E  0101               	movlb	1	; () banked
  4743+ 000F40  5108               	movf	((USBCtrlTrfTxService@byteToSend+1))&0ffh,
      +                          w
  4744+ 000F42  5805               	subwfb	(1+((c:0)+04h)),c,w
  4745+ 000F44  6E05               	movwf	1+(0+((c:0)+04h)),c
  4746+                          	line	2106
  4747+                          ;usb_device.c: 2106: pDst = ( BYTE*)CtrlTrfData;
  4748+ 000F46  0105               	movlb	5	; () banked
  4749+ 000F48  0E20               	movlw	low(1312)	;volatile
  4750+ 000F4A  6E1E               	movwf	((c:30)),c
  4751+ 000F4C  0105               	movlb	5	; () banked
  4752+ 000F4E  0E05               	movlw	high(1312)	;volatile
  4753+ 000F50  6E1F               	movwf	((c:30+1)),c
  4754+                          	line	2108
  4755+                          ;usb_device.c: 2108: if(inPipes[0].info.bits.ctr
      +                          l_trf_mem == 0x00)
  4756+                          	
  4757+ 000F52  B003               	btfsc	(0+((c:0)+03h)),c,0
  4758+ 000F54  EFAE  F007         	goto	u3721
  4759+ 000F58  EFB0  F007         	goto	u3720
  4760+ 000F5C                     u3721:
  4761+ 000F5C  EFDD  F007         	goto	l643
  4762+ 000F60                     u3720:
  4763+                          	line	2110
  4764+                          ;usb_device.c: 2109: {
  4765+                          ;usb_device.c: 2110: while(byteToSend.Val)
  4766+ 000F60  EFD0  F007         	goto	l644
  4767+                          	
  4768+ 000F64                     l645:		; BSR set to: ?
  4769+                          
  4770+                          	line	2112
  4771+ 000F64  C000 FFF6          	movff	(c:0),tblptrl
  4772+ 000F68  C001 FFF7          	movff	(c:0+1),tblptrh
  4773+ 000F6C  6AF8               	clrf	tblptru
  4774+ 000F6E  C01E FFE1          	movff	(c:30),fsr1l
  4775+ 000F72  C01F FFE2          	movff	(c:30+1),fsr1h
  4776+ 000F76  0E03               	movlw	high __ramtop-1
  4777+ 000F78  64F7               	cpfsgt	tblptrh
  4778+ 000F7A  D003               	bra	u3737
  4779+ 000F7C  0008               	tblrd	*
  4780+                          	
  4781+ 000F7E  50F5               	movf	tablat,w
  4782+ 000F80  D005               	bra	u3730
  4783+ 000F82                     u3737:
  4784+ 000F82  CFF6 FFE9          	movff	tblptrl,fsr0l
  4785+ 000F86  CFF7 FFEA          	movff	tblptrh,fsr0h
  4786+ 000F8A  50EF               	movf	indf0,w
  4787+ 000F8C                     u3730:
  4788+ 000F8C  6EE7               	movwf	indf1
  4789+                          ;usb_device.c: 2111: {
  4790+                          ;usb_device.c: 2112: *pDst++ = *inPipes[0].pSrc.
      +                          bRom++;
  4791+ 000F8E  4A00               	infsnz	((c:0)),c
  4792+ 000F90  2A01               	incf	((c:0+1)),c
  4793+ 000F92  4A1E               	infsnz	((c:30)),c
  4794+ 000F94  2A1F               	incf	((c:30+1)),c
  4795+                          	line	2113
  4796+                          ;usb_device.c: 2113: byteToSend.Val--;
  4797+ 000F96  0101               	movlb	1	; () banked
  4798+ 000F98  0101               	movlb	1	; () banked
  4799+ 000F9A  0707               	decf	((USBCtrlTrfTxService@byteToSend))&0ffh
  4800+ 000F9C  A0D8               	btfss	status,0
  4801+ 000F9E  0708               	decf	((USBCtrlTrfTxService@byteToSend+1))&0ffh
  4802+                          	line	2114
  4803+                          	
  4804+ 000FA0                     l644:		; BSR set to: ?
  4805+                          
  4806+                          	line	2110
  4807+ 000FA0  0101               	movlb	1	; () banked
  4808+ 000FA2  0101               	movlb	1	; () banked
  4809+ 000FA4  5108               	movf	((USBCtrlTrfTxService@byteToSend+1))&0ffh,
      +                          w
  4810+ 000FA6  1107               	iorwf ((USBCtrlTrfTxService@byteToSend))&0ffh,w
  4811+                          
  4812+ 000FA8  A4D8               	btfss	status,2
  4813+ 000FAA  EFD9  F007         	goto	u3741
  4814+ 000FAE  EFDB  F007         	goto	u3740
  4815+ 000FB2                     u3741:
  4816+ 000FB2  EFB2  F007         	goto	l645
  4817+ 000FB6                     u3740:
  4818+                          	
  4819+ 000FB6                     l646:		; BSR set to: ?
  4820+                          
  4821+                          	line	2115
  4822+                          ;usb_device.c: 2114: }
  4823+                          ;usb_device.c: 2115: }
  4824+ 000FB6  EF08  F008         	goto	l647
  4825+                          	line	2116
  4826+                          	
  4827+ 000FBA                     l643:		; BSR set to: ?
  4828+                          
  4829+                          	line	2118
  4830+                          ;usb_device.c: 2116: else
  4831+                          ;usb_device.c: 2117: {
  4832+                          ;usb_device.c: 2118: while(byteToSend.Val)
  4833+ 000FBA  EFFD  F007         	goto	l648
  4834+                          	
  4835+ 000FBE                     l649:		; BSR set to: ?
  4836+                          
  4837+                          	line	2120
  4838+ 000FBE  C000 FFF6          	movff	(c:0),tblptrl
  4839+ 000FC2  C001 FFF7          	movff	(c:0+1),tblptrh
  4840+ 000FC6  6AF8               	clrf	tblptru
  4841+ 000FC8  C01E FFE1          	movff	(c:30),fsr1l
  4842+ 000FCC  C01F FFE2          	movff	(c:30+1),fsr1h
  4843+ 000FD0  0E03               	movlw	high __ramtop-1
  4844+ 000FD2  64F7               	cpfsgt	tblptrh
  4845+ 000FD4  D003               	bra	u3757
  4846+ 000FD6  0008               	tblrd	*
  4847+                          	
  4848+ 000FD8  50F5               	movf	tablat,w
  4849+ 000FDA  D005               	bra	u3750
  4850+ 000FDC                     u3757:
  4851  000FDC  CFF6 FFE9          	movff	tblptrl,fsr0l
  4852  000FE0  CFF7 FFEA          	movff	tblptrh,fsr0h
  4853  000FE4  50EF               	movf	indf0,w
  4854  000FE6                     u3750:
  4855  000FE6  6EE7               	movwf	indf1
  4856                           ;usb_device.c: 2119: {
  4857                           ;usb_device.c: 2120: *pDst++ = *inPipes[0].pSrc.
                                 bRam++;
  4858  000FE8  4A00               	infsnz	((c:0)),c
  4859  000FEA  2A01               	incf	((c:0+1)),c
  4860  000FEC  4A1E               	infsnz	((c:30)),c
  4861  000FEE  2A1F               	incf	((c:30+1)),c
  4862                           	line	2121
  4863                           ;usb_device.c: 2121: byteToSend.Val--;
  4864  000FF0  0101               	movlb	1	; () banked
  4865  000FF2  0101               	movlb	1	; () banked
  4866  000FF4  0707               	decf	((USBCtrlTrfTxService@byteToSend))&0ffh
  4867  000FF6  A0D8               	btfss	status,0
  4868  000FF8  0708               	decf	((USBCtrlTrfTxService@byteToSend+1))&0ffh
  4869                           	line	2122
  4870                           	
  4871  000FFA                     l648:		; BSR set to: ?
  4872                           
  4873                           	line	2118
  4874  000FFA  0101               	movlb	1	; () banked
  4875  000FFC  0101               	movlb	1	; () banked
  4876  000FFE  5108               	movf	((USBCtrlTrfTxService@byteToSend+1))&0ffh,
                                 w
  4877  001000  1107               	iorwf ((USBCtrlTrfTxService@byteToSend))&0ffh,w
  4878                           
  4879  001002  A4D8               	btfss	status,2
  4880  001004  EF06  F008         	goto	u3761
  4881  001008  EF08  F008         	goto	u3760
  4882  00100C                     u3761:
  4883  00100C  EFDF  F007         	goto	l649
  4884  001010                     u3760:
  4885                           	
  4886  001010                     l650:		; BSR set to: ?
  4887                           
  4888                           	line	2123
  4889                           	
  4890  001010                     l647:		; BSR set to: ?
  4891                           
  4892                           	line	2125
  4893                           ;usb_device.c: 2122: }
  4894                           ;usb_device.c: 2123: }
  4895                           ;usb_device.c: 2125: }
  4896  001010                     l637:
  4897                           			; BSR set to: ?
  4898                           
  4899  001010  0012               	return
  4900                           	opt stack 0
  4901                           GLOBAL __end_of_USBCtrlTrfTxService
  4902  001012                     	__end_of_USBCtrlTrfTxService:
  4903                           	FNSIZE	_USBCtrlTrfTxService,3,0
  4904                           ; =============== function _USBCtrlTrfTxService 
                                 ends ============
  4905                           
  4906                           	signat	_USBCtrlTrfTxService,88
  4907                           	global	_USBStdSetCfgHandler
  4908                           	global	??_USBStdSetCfgHandler
  4909                           	global	?_USBStdSetCfgHandler
  4910                           
  4911                           ; *************** function _USBStdSetCfgHandler 
                                 *****************
  4912                           ; Defined at:
  4913                           ;		line 2231 in file "X:\mplab\mini project\new 
                                 untouched\USB Io board fimware source\usb_device
                                 .c"
  4914                           ; Parameters:
  4915                           ;		None
  4916                           ; Auto variables:
  4917                           ;		None
  4918                           ; Return value:
  4919                           ;		type: void 
  4920                           ;		size: 0
  4921                           ; Registers used:
  4922                           ;		wreg, fsr0l, fsr0h, status,2, status,0, prodl
                                 , prodh, cstack
  4923                           ; Tracked objects:
  4924                           ;		On entry : 0/0
  4925                           ;		On exit  : 0/0
  4926                           ;		Unchanged: 0/0
  4927                           ; Data sizes:
  4928                           ;		Autos:    0
  4929                           ;		Params:   0
  4930                           ;		Temp:     1
  4931                           ;		Total:    1
  4932                           ; This function calls:
  4933                           ;		_memset
  4934                           ;		_USER_USB_CALLBACK_EVENT_HANDLER
  4935                           ; This function is called by:
  4936                           ;		_USBCheckStdRequest
  4937                           ; This function uses a non-reentrant model
  4938                           ; 
  4939                                   psect   text19,class=CODE,space=0,reloc=
                                 2
  4940                           
  4941                           	opt lm
  4942                           	file	"X:\mplab\mini project\new untouched\USB I
                                 o board fimware source\usb_device.c"
  4943                           	line	2231
  4944  000000                     	__size_of_USBStdSetCfgHandler	equ	__end_of_USBS
                                 tdSetCfgHandler-_USBStdSetCfgHandler
  4945                           ;usb_device.c: 2230: void USBStdSetCfgHandler(vo
                                 id)
  4946                           ;usb_device.c: 2231: {
  4947                           	
  4948  001CFC                     _USBStdSetCfgHandler:		; BSR set to: ?
  4949                           
  4950                           	opt stack 24
  4951                           	line	2233
  4952                           ;usb_device.c: 2233: inPipes[0].info.bits.busy =
                                  1;
  4953  001CFC  8E03               	bsf	(0+((c:0)+03h)),c,7
  4954                           	line	2236
  4955                           ;usb_device.c: 2236: memset((void*)&UEP1,0x00,(1
                                 -1));
  4956  001CFE  0E00               	movlw	low(0)
  4957  001D00  0101               	movlb	1	; () banked
  4958  001D02  0101               	movlb	1	; () banked
  4959  001D04  6F0C               	movwf	(0+(?_memset+04h))&0ffh
  4960  001D06  0E00               	movlw	high(0)
  4961  001D08  0101               	movlb	1	; () banked
  4962  001D0A  6F0D               	movwf	(1+(?_memset+04h))&0ffh
  4963  001D0C  0E00               	movlw	low(0)
  4964  001D0E  0101               	movlb	1	; () banked
  4965  001D10  0101               	movlb	1	; () banked
  4966  001D12  6F0A               	movwf	(0+(?_memset+02h))&0ffh
  4967  001D14  0E00               	movlw	high(0)
  4968  001D16  0101               	movlb	1	; () banked
  4969  001D18  6F0B               	movwf	(1+(?_memset+02h))&0ffh
  4970  001D1A  0E71               	movlw	low((c:3953))	;volatile
  4971  001D1C  0101               	movlb	1	; () banked
  4972  001D1E  0101               	movlb	1	; () banked
  4973  001D20  6F08               	movwf	((?_memset))&0ffh
  4974  001D22  0E0F               	movlw	high((c:3953))	;volatile
  4975  001D24  0101               	movlb	1	; () banked
  4976  001D26  6F09               	movwf	((?_memset+1))&0ffh
  4977  001D28  ECD0  F010         	call	_memset	;wreg free
  4978                           	line	2239
  4979                           ;usb_device.c: 2239: memset((void*)&USBAlternate
                                 Interface,0x00,1);
  4980  001D2C  0E01               	movlw	low(01h)
  4981  001D2E  0101               	movlb	1	; () banked
  4982  001D30  0101               	movlb	1	; () banked
  4983  001D32  6F0C               	movwf	(0+(?_memset+04h))&0ffh
  4984  001D34  0E00               	movlw	high(01h)
  4985  001D36  0101               	movlb	1	; () banked
  4986  001D38  6F0D               	movwf	(1+(?_memset+04h))&0ffh
  4987  001D3A  0E00               	movlw	low(0)
  4988  001D3C  0101               	movlb	1	; () banked
  4989  001D3E  0101               	movlb	1	; () banked
  4990  001D40  6F0A               	movwf	(0+(?_memset+02h))&0ffh
  4991  001D42  0E00               	movlw	high(0)
  4992  001D44  0101               	movlb	1	; () banked
  4993  001D46  6F0B               	movwf	(1+(?_memset+02h))&0ffh
  4994  001D48  0E24               	movlw	low((c:36))
  4995  001D4A  0101               	movlb	1	; () banked
  4996  001D4C  0101               	movlb	1	; () banked
  4997  001D4E  6F08               	movwf	((?_memset))&0ffh
  4998  001D50  0E00               	movlw	high((c:36))
  4999  001D52  0101               	movlb	1	; () banked
  5000  001D54  6F09               	movwf	((?_memset+1))&0ffh
  5001  001D56  ECD0  F010         	call	_memset	;wreg free
  5002                           	line	2242
  5003                           ;usb_device.c: 2242: USBActiveConfiguration = Se
                                 tupPkt.bConfigurationValue;
  5004  001D5A  C502 F01C          	movff	0+(1280+02h),(c:28)	;volatile
  5005                           	line	2245
  5006                           ;usb_device.c: 2245: if(USBActiveConfiguration =
                                 = 0)
  5007  001D5E  661C               	tstfsz	((c:28)),c
  5008  001D60  EFB4  F00E         	goto	u3211
  5009  001D64  EFB6  F00E         	goto	u3210
  5010  001D68                     u3211:
  5011  001D68  EFBE  F00E         	goto	l664
  5012  001D6C                     u3210:
  5013                           	line	2248
  5014                           ;usb_device.c: 2246: {
  5015                           ;usb_device.c: 2248: USBDeviceState = ADDRESS_ST
                                 ATE;
  5016  001D6C  0101               	movlb	1	; () banked
  5017  001D6E  6F07               	movwf	(??_USBStdSetCfgHandler+0+0)&0ffh
  5018  001D70  0E10               	movlw	low(010h)
  5019  001D72  6E1D               	movwf	((c:29)),c
  5020  001D74  0101               	movlb	1	; () banked
  5021  001D76  5107               	movf	(??_USBStdSetCfgHandler+0+0)&0ffh,w
  5022                           	line	2249
  5023                           ;usb_device.c: 2249: }
  5024  001D78  EFDB  F00E         	goto	l665
  5025                           	line	2250
  5026                           	
  5027  001D7C                     l664:		; BSR set to: ?
  5028                           
  5029                           	line	2253
  5030                           ;usb_device.c: 2250: else
  5031                           ;usb_device.c: 2251: {
  5032                           ;usb_device.c: 2253: USBDeviceState = CONFIGURED
                                 _STATE;
  5033  001D7C  0101               	movlb	1	; () banked
  5034  001D7E  6F07               	movwf	(??_USBStdSetCfgHandler+0+0)&0ffh
  5035  001D80  0E20               	movlw	low(020h)
  5036  001D82  6E1D               	movwf	((c:29)),c
  5037  001D84  0101               	movlb	1	; () banked
  5038  001D86  5107               	movf	(??_USBStdSetCfgHandler+0+0)&0ffh,w
  5039                           	line	2255
  5040                           ;usb_device.c: 2255: USER_USB_CALLBACK_EVENT_HAN
                                 DLER(EVENT_CONFIGURED,(void*)&USBActiveConfigura
                                 tion,1);
  5041  001D88  0E01               	movlw	low(01h)
  5042  001D8A  0101               	movlb	1	; () banked
  5043  001D8C  0101               	movlb	1	; () banked
  5044  001D8E  6F0C               	movwf	(0+(?_USER_USB_CALLBACK_EVENT_HANDLER+04h
                                 ))&0ffh
  5045  001D90  0E00               	movlw	high(01h)
  5046  001D92  0101               	movlb	1	; () banked
  5047  001D94  6F0D               	movwf	(1+(?_USER_USB_CALLBACK_EVENT_HANDLER+04h
                                 ))&0ffh
  5048  001D96  0E1C               	movlw	low((c:28))
  5049  001D98  0101               	movlb	1	; () banked
  5050  001D9A  0101               	movlb	1	; () banked
  5051  001D9C  6F0A               	movwf	(0+(?_USER_USB_CALLBACK_EVENT_HANDLER+02h
                                 ))&0ffh
  5052  001D9E  0E00               	movlw	high((c:28))
  5053  001DA0  0101               	movlb	1	; () banked
  5054  001DA2  6F0B               	movwf	(1+(?_USER_USB_CALLBACK_EVENT_HANDLER+02h
                                 ))&0ffh
  5055  001DA4  0E01               	movlw	low(01h)
  5056  001DA6  0101               	movlb	1	; () banked
  5057  001DA8  0101               	movlb	1	; () banked
  5058  001DAA  6F08               	movwf	((?_USER_USB_CALLBACK_EVENT_HANDLER))&0ff
                                 h
  5059  001DAC  0E00               	movlw	high(01h)
  5060  001DAE  0101               	movlb	1	; () banked
  5061  001DB0  6F09               	movwf	((?_USER_USB_CALLBACK_EVENT_HANDLER+1))&0
                                 ffh
  5062  001DB2  ECDC  F00E         	call	_USER_USB_CALLBACK_EVENT_HANDLER	;wreg fre
                                 e
  5063                           	line	2257
  5064                           	
  5065  001DB6                     l665:		; BSR set to: ?
  5066                           
  5067                           	line	2258
  5068                           ;usb_device.c: 2257: }
  5069                           ;usb_device.c: 2258: }
  5070  001DB6                     l663:
  5071                           			; BSR set to: ?
  5072                           
  5073  001DB6  0012               	return
  5074                           	opt stack 0
  5075                           GLOBAL __end_of_USBStdSetCfgHandler
  5076  001DB8                     	__end_of_USBStdSetCfgHandler:
  5077                           	FNSIZE	_USBStdSetCfgHandler,1,0
  5078                           ; =============== function _USBStdSetCfgHandler 
                                 ends ============
  5079                           
  5080                           	signat	_USBStdSetCfgHandler,88
  5081                           	global	_USBStdGetStatusHandler
  5082                           	global	??_USBStdGetStatusHandler
  5083                           	global	?_USBStdGetStatusHandler
  5084                           
  5085                           ; *************** function _USBStdGetStatusHandl
                                 er *****************
  5086                           ; Defined at:
  5087                           ;		line 1826 in file "X:\mplab\mini project\new 
                                 untouched\USB Io board fimware source\usb_device
                                 .c"
  5088                           ; Parameters:
  5089                           ;		None
  5090                           ; Auto variables:
  5091                           ;		p           	       	type: PTR struct __BDT; 
                                 Largest target is 40
  5092                           ;		 -> BDT(32), 
  5093                           ; Return value:
  5094                           ;		type: void 
  5095                           ;		size: 0
  5096                           ; Registers used:
  5097                           ;		wreg, fsr0l, fsr0h, status,2, status,0, prodl
                                 , prodh
  5098                           ; Tracked objects:
  5099                           ;		On entry : 0/0
  5100                           ;		On exit  : 0/0
  5101                           ;		Unchanged: 0/0
  5102                           ; Data sizes:
  5103                           ;		Autos:    2
  5104                           ;		Params:   0
  5105                           ;		Temp:     1
  5106                           ;		Total:    3
  5107                           ; This function calls:
  5108                           ;		Nothing
  5109                           ; This function is called by:
  5110                           ;		_USBCheckStdRequest
  5111                           ; This function uses a non-reentrant model
  5112                           ; 
  5113                                   psect   text20,class=CODE,space=0,reloc=
                                 2
  5114                           
  5115                           	opt lm
  5116                           	file	"X:\mplab\mini project\new untouched\USB I
                                 o board fimware source\usb_device.c"
  5117                           	line	1826
  5118  000000                     	__size_of_USBStdGetStatusHandler	equ	__end_of_U
                                 SBStdGetStatusHandler-_USBStdGetStatusHandler
  5119                           ;usb_device.c: 1825: void USBStdGetStatusHandler
                                 (void)
  5120                           ;usb_device.c: 1826: {
  5121                           	
  5122  00195A                     _USBStdGetStatusHandler:		; BSR set to: ?
  5123                           
  5124                           	opt stack 24
  5125                           	line	1827
  5126                           ;usb_device.c: 1827: CtrlTrfData[0] = 0;
  5127  00195A  0E00               	movlw	low(0)
  5128  00195C  0105               	movlb	5	; () banked
  5129  00195E  0105               	movlb	5	; () banked
  5130  001960  6F20               	movwf	((1312))&0ffh	;volatile
  5131                           	line	1828
  5132                           ;usb_device.c: 1828: CtrlTrfData[1] = 0;
  5133  001962  0E00               	movlw	low(0)
  5134  001964  0105               	movlb	5	; () banked
  5135  001966  0105               	movlb	5	; () banked
  5136  001968  6F21               	movwf	(0+(1312+01h))&0ffh	;volatile
  5137                           	line	1830
  5138                           ;usb_device.c: 1830: switch(SetupPkt.Recipient)
  5139  00196A  EF0C  F00D         	goto	l618
  5140                           	line	1832
  5141                           ;usb_device.c: 1831: {
  5142                           ;usb_device.c: 1832: case (0x00):
  5143                           	
  5144  00196E                     l619:		; BSR set to: ?
  5145                           
  5146                           	line	1833
  5147                           ;usb_device.c: 1833: inPipes[0].info.bits.busy =
                                  1;
  5148  00196E  8E03               	bsf	(0+((c:0)+03h)),c,7
  5149                           	line	1840
  5150                           ;usb_device.c: 1839: {
  5151                           ;usb_device.c: 1840: CtrlTrfData[0]|=0x01;
  5152  001970  0105               	movlb	5	; () banked
  5153  001972  0105               	movlb	5	; () banked
  5154  001974  8120               	bsf	(0+(0/8)+(1312))&0ffh,(0)&7	;volatile
  5155                           	line	1841
  5156                           	
  5157  001976                     l620:		; BSR set to: ?
  5158                           
  5159                           	line	1843
  5160                           ;usb_device.c: 1841: }
  5161                           ;usb_device.c: 1843: if(RemoteWakeup == TRUE)
  5162  001976  042A               	decf	((c:42)),c,w
  5163                           
  5164  001978  A4D8               	btfss	status,2
  5165  00197A  EFC1  F00C         	goto	u3771
  5166  00197E  EFC3  F00C         	goto	u3770
  5167  001982                     u3771:
  5168  001982  EFC6  F00C         	goto	l621
  5169  001986                     u3770:
  5170                           	line	1845
  5171                           ;usb_device.c: 1844: {
  5172                           ;usb_device.c: 1845: CtrlTrfData[0]|=0x02;
  5173  001986  0105               	movlb	5	; () banked
  5174  001988  0105               	movlb	5	; () banked
  5175  00198A  8320               	bsf	(0+(1/8)+(1312))&0ffh,(1)&7	;volatile
  5176                           	line	1846
  5177                           	
  5178  00198C                     l621:		; BSR set to: ?
  5179                           
  5180                           	line	1847
  5181                           ;usb_device.c: 1846: }
  5182                           ;usb_device.c: 1847: break;
  5183  00198C  EF17  F00D         	goto	l617
  5184                           	line	1848
  5185                           ;usb_device.c: 1848: case (0x01):
  5186                           	
  5187  001990                     l622:		; BSR set to: ?
  5188                           
  5189                           	line	1849
  5190                           ;usb_device.c: 1849: inPipes[0].info.bits.busy =
                                  1;
  5191  001990  8E03               	bsf	(0+((c:0)+03h)),c,7
  5192                           	line	1850
  5193                           ;usb_device.c: 1850: break;
  5194  001992  EF17  F00D         	goto	l617
  5195                           	line	1851
  5196                           ;usb_device.c: 1851: case (0x02):
  5197                           	
  5198  001996                     l623:		; BSR set to: ?
  5199                           
  5200                           	line	1852
  5201                           ;usb_device.c: 1852: inPipes[0].info.bits.busy =
                                  1;
  5202  001996  8E03               	bsf	(0+((c:0)+03h)),c,7
  5203                           	line	1859
  5204                           ;usb_device.c: 1856: {
  5205                           ;usb_device.c: 1857: BDT_ENTRY *p;
  5206                           ;usb_device.c: 1859: if(SetupPkt.EPDir == 0)
  5207  001998  0105               	movlb	5	; () banked
  5208                           	
  5209  00199A  0105               	movlb	5	; () banked
  5210  00199C  BF04               	btfsc	(0+(1280+04h))&0ffh,7	;volatile
  5211  00199E  EFD3  F00C         	goto	u3781
  5212  0019A2  EFD5  F00C         	goto	u3780
  5213  0019A6                     u3781:
  5214  0019A6  EFE7  F00C         	goto	l624
  5215  0019AA                     u3780:
  5216                           	line	1861
  5217                           ;usb_device.c: 1860: {
  5218                           ;usb_device.c: 1861: p = (BDT_ENTRY*)pBDTEntryOu
                                 t[SetupPkt.EPNum];
  5219  0019AA  0105               	movlb	5	; () banked
  5220  0019AC  5104               	movf	(0+(1280+04h))&0ffh,w	;volatile
  5221  0019AE  0B0F               	andlw	(1<<4)-1
  5222  0019B0  0D02               	mullw	02h
  5223  0019B2  0E17               	movlw	low((c:23))
  5224  0019B4  24F3               	addwf	(prodl),c,w
  5225  0019B6  6EE9               	movwf	c:fsr0l
  5226  0019B8  6AEA               	clrf	1+c:fsr0l
  5227  0019BA  0E00               	movlw	high((c:23))
  5228  0019BC  22EA               	addwfc	1+c:fsr0l
  5229  0019BE  0101               	movlb	1	; () banked
  5230  0019C0  CFEE F107          	movff	postinc0,(USBStdGetStatusHandler@p)
  5231  0019C4  0101               	movlb	1	; () banked
  5232  0019C6  CFED F108          	movff	postdec0,(USBStdGetStatusHandler@p+1)
  5233                           	line	1862
  5234                           ;usb_device.c: 1862: }
  5235  0019CA  EFF7  F00C         	goto	l625
  5236                           	line	1863
  5237                           	
  5238  0019CE                     l624:		; BSR set to: ?
  5239                           
  5240                           	line	1865
  5241                           ;usb_device.c: 1863: else
  5242                           ;usb_device.c: 1864: {
  5243                           ;usb_device.c: 1865: p = (BDT_ENTRY*)pBDTEntryIn
                                 [SetupPkt.EPNum];
  5244  0019CE  0105               	movlb	5	; () banked
  5245  0019D0  5104               	movf	(0+(1280+04h))&0ffh,w	;volatile
  5246  0019D2  0B0F               	andlw	(1<<4)-1
  5247  0019D4  0D02               	mullw	02h
  5248  0019D6  0E0F               	movlw	low((c:15))
  5249  0019D8  24F3               	addwf	(prodl),c,w
  5250  0019DA  6EE9               	movwf	c:fsr0l
  5251  0019DC  6AEA               	clrf	1+c:fsr0l
  5252  0019DE  0E00               	movlw	high((c:15))
  5253  0019E0  22EA               	addwfc	1+c:fsr0l
  5254  0019E2  0101               	movlb	1	; () banked
  5255  0019E4  CFEE F107          	movff	postinc0,(USBStdGetStatusHandler@p)
  5256  0019E8  0101               	movlb	1	; () banked
  5257  0019EA  CFED F108          	movff	postdec0,(USBStdGetStatusHandler@p+1)
  5258                           	line	1866
  5259                           	
  5260  0019EE                     l625:		; BSR set to: ?
  5261                           
  5262                           	line	1868
  5263                           ;usb_device.c: 1866: }
  5264                           ;usb_device.c: 1868: if(p->STAT.Val & 0x04)
  5265  0019EE  C107  FFE9         	movff	(USBStdGetStatusHandler@p),fsr0l
  5266  0019F2  C108  FFEA         	movff	(USBStdGetStatusHandler@p+1),fsr0h
  5267  0019F6  50EF               	movf	indf0,w
  5268  0019F8  0101               	movlb	1	; () banked
  5269  0019FA  6F09               	movwf	(??_USBStdGetStatusHandler+2+0)&0ffh
  5270  0019FC  0101               	movlb	1	; () banked
  5271                           	
  5272  0019FE  A509               	btfss	((??_USBStdGetStatusHandler+2+0))&0ffh,(2
                                 )&7
  5273  001A00  EF04  F00D         	goto	u3791
  5274  001A04  EF06  F00D         	goto	u3790
  5275  001A08                     u3791:
  5276  001A08  EFC6  F00C         	goto	l621
  5277  001A0C                     u3790:
  5278                           	line	1869
  5279                           ;usb_device.c: 1869: CtrlTrfData[0]=0x01;
  5280  001A0C  0E01               	movlw	low(01h)
  5281  001A0E  0105               	movlb	5	; () banked
  5282  001A10  0105               	movlb	5	; () banked
  5283  001A12  6F20               	movwf	((1312))&0ffh	;volatile
  5284                           	
  5285  001A14                     l626:		; BSR set to: ?
  5286                           
  5287                           	line	1870
  5288                           ;usb_device.c: 1870: break;
  5289  001A14  EF17  F00D         	goto	l617
  5290                           	line	1830
  5291                           	
  5292  001A18                     l618:		; BSR set to: ?
  5293                           
  5294  001A18  0105               	movlb	5	; () banked
  5295  001A1A  5100               	movf	((1280))&0ffh,w	;volatile
  5296  001A1C  0B1F               	andlw	(1<<5)-1
  5297  001A1E  0A00               	xorlw	0 ^ 0
  5298  001A20  E0A6               	bz	l619
  5299  001A22  0A01               	xorlw	1 ^ 0
  5300  001A24  E0B5               	bz	l622
  5301  001A26  0A03               	xorlw	2 ^ 1
  5302  001A28  E0B6               	bz	l623
  5303  001A2A  EF17  F00D         	goto	l617
  5304                           
  5305                           	line	1872
  5306                           	
  5307  001A2E                     l617:		; BSR set to: ?
  5308                           
  5309                           	line	1874
  5310                           ;usb_device.c: 1874: if(inPipes[0].info.bits.bus
                                 y == 1)
  5311                           	
  5312  001A2E  AE03               	btfss	(0+((c:0)+03h)),c,7
  5313  001A30  EF1C  F00D         	goto	u3801
  5314  001A34  EF1E  F00D         	goto	u3800
  5315  001A38                     u3801:
  5316  001A38  EF2B  F00D         	goto	l627
  5317  001A3C                     u3800:
  5318                           	line	1876
  5319                           ;usb_device.c: 1875: {
  5320                           ;usb_device.c: 1876: inPipes[0].pSrc.bRam = (BYT
                                 E*)&CtrlTrfData;
  5321  001A3C  0105               	movlb	5	; () banked
  5322  001A3E  0E20               	movlw	low(1312)	;volatile
  5323  001A40  6E00               	movwf	((c:0)),c
  5324  001A42  0105               	movlb	5	; () banked
  5325  001A44  0E05               	movlw	high(1312)	;volatile
  5326  001A46  6E01               	movwf	((c:0+1)),c
  5327                           	line	1877
  5328                           ;usb_device.c: 1877: inPipes[0].info.bits.ctrl_t
                                 rf_mem = 0x01;
  5329  001A48  8003               	bsf	(0+((c:0)+03h)),c,0
  5330                           	line	1878
  5331                           ;usb_device.c: 1878: inPipes[0].wCount.v[0] = 2;
  5332  001A4A  0101               	movlb	1	; () banked
  5333  001A4C  6F09               	movwf	(??_USBStdGetStatusHandler+2+0)&0ffh
  5334  001A4E  0E02               	movlw	low(02h)
  5335  001A50  6E04               	movwf	(0+((c:0)+04h)),c
  5336  001A52  0101               	movlb	1	; () banked
  5337  001A54  5109               	movf	(??_USBStdGetStatusHandler+2+0)&0ffh,w
  5338                           	line	1879
  5339                           	
  5340  001A56                     l627:		; BSR set to: ?
  5341                           
  5342                           	line	1880
  5343                           ;usb_device.c: 1879: }
  5344                           ;usb_device.c: 1880: }
  5345  001A56                     l616:
  5346                           			; BSR set to: ?
  5347                           
  5348  001A56  0012               	return
  5349                           	opt stack 0
  5350                           GLOBAL __end_of_USBStdGetStatusHandler
  5351  001A58                     	__end_of_USBStdGetStatusHandler:
  5352                           	FNSIZE	_USBStdGetStatusHandler,3,0
  5353                           ; =============== function _USBStdGetStatusHandl
                                 er ends ============
  5354                           
  5355                           	signat	_USBStdGetStatusHandler,88
  5356                           	global	_memset
  5357                           	global	??_memset
  5358                           	global	?_memset
  5359                           
  5360                           ; *************** function _memset *************
                                 ****
  5361                           ; Defined at:
  5362                           ;		line 10 in file "C:\Program Files (x86)\HI-TE
                                 CH Software\PICC-18\PRO\9.65\sources\memset.c"
  5363                           ; Parameters:
  5364                           ;		p1             size:   2offs:   0	type: PTR v
                                 oid ; Largest target is 1
  5365                           ;		 -> USBAlternateInterface(1), UEP1(1), 
  5366                           ;		c              size:   2offs:   2	type: int 
  5367                           ;		n              size:   2offs:   4	type: unsig
                                 ned int 
  5368                           ; Auto variables:
  5369                           ;		p           	       	type: PTR unsigned char 
                                 ; Largest target is 1
  5370                           ;		 -> USBAlternateInterface(1), UEP1(1), 
  5371                           ; Return value:
  5372                           ;		type: PTR void 
  5373                           ;		size: 2
  5374                           ; Registers used:
  5375                           ;		wreg, fsr0l, fsr0h, status,2, status,0
  5376                           ; Tracked objects:
  5377                           ;		On entry : 0/0
  5378                           ;		On exit  : 0/0
  5379                           ;		Unchanged: 0/0
  5380                           ; Data sizes:
  5381                           ;		Autos:    2
  5382                           ;		Params:   6
  5383                           ;		Temp:     0
  5384                           ;		Total:    8
  5385                           ; This function calls:
  5386                           ;		Nothing
  5387                           ; This function is called by:
  5388                           ;		_USBDeviceInit
  5389                           ;		_USBStdSetCfgHandler
  5390                           ; This function uses a non-reentrant model
  5391                           ; 
  5392                                   psect   text21,class=CODE,space=0,reloc=
                                 2
  5393                           
  5394                           	opt lm
  5395                           	file	"C:\Program Files (x86)\HI-TECH Software\P
                                 ICC-18\PRO\9.65\sources\memset.c"
  5396                           	line	10
  5397  000000                     	__size_of_memset	equ	__end_of_memset-_memset
  5398                           	
  5399  0021A0                     _memset:		; BSR set to: ?
  5400                           
  5401                           	opt stack 23
  5402                           	line	18
  5403  0021A0  C108  F10E         	movff	(memset@p1),(memset@p)
  5404  0021A4  C109  F10F         	movff	(memset@p1+1),(memset@p+1)
  5405                           	line	19
  5406  0021A8  EFE1  F010         	goto	l1218
  5407                           	
  5408  0021AC                     l1219:		; BSR set to: ?
  5409                           
  5410                           	line	20
  5411  0021AC  C10E  FFE9         	movff	(memset@p),fsr0l
  5412  0021B0  C10F  FFEA         	movff	(memset@p+1),fsr0h
  5413  0021B4  0101               	movlb	1	; () banked
  5414  0021B6  C10A  FFEF         	movff	(memset@c),indf0
  5415                           
  5416  0021BA  0101               	movlb	1	; () banked
  5417  0021BC  0101               	movlb	1	; () banked
  5418  0021BE  4B0E               	infsnz	((memset@p))&0ffh
  5419  0021C0  2B0F               	incf	((memset@p+1))&0ffh
  5420                           	
  5421  0021C2                     l1218:		; BSR set to: ?
  5422                           
  5423                           	line	19
  5424  0021C2  0101               	movlb	1	; () banked
  5425  0021C4  0101               	movlb	1	; () banked
  5426  0021C6  070C               	decf	((memset@n))&0ffh
  5427  0021C8  A0D8               	btfss	status,0
  5428  0021CA  070D               	decf	((memset@n+1))&0ffh
  5429  0021CC  0101               	movlb	1	; () banked
  5430  0021CE  290C               	incf	((memset@n))&0ffh,w
  5431  0021D0  B4D8               	btfsc	status,2
  5432  0021D2  290D               	incf ((memset@n+1))&0ffh,w
  5433                           
  5434  0021D4  A4D8               	btfss	status,2
  5435  0021D6  EFEF  F010         	goto	u3311
  5436  0021DA  EFF1  F010         	goto	u3310
  5437  0021DE                     u3311:
  5438  0021DE  EFD6  F010         	goto	l1219
  5439  0021E2                     u3310:
  5440                           	
  5441  0021E2                     l1220:		; BSR set to: ?
  5442                           
  5443                           	line	21
  5444  0021E2  EFF3  F010         	goto	l1217
  5445                           	line	22
  5446  0021E6                     l1217:
  5447                           			; BSR set to: ?
  5448                           
  5449  0021E6  0012               	return
  5450                           	opt stack 0
  5451                           GLOBAL __end_of_memset
  5452  0021E8                     	__end_of_memset:
  5453                           	FNSIZE	_memset,2,6
  5454                           ; =============== function _memset ends ========
                                 ====
  5455                           
  5456                           	signat	_memset,12410
  5457                           	global	_USER_USB_CALLBACK_EVENT_HANDLER
  5458                           	global	??_USER_USB_CALLBACK_EVENT_HANDLER
  5459                           	global	?_USER_USB_CALLBACK_EVENT_HANDLER
  5460                           
  5461                           ; *************** function _USER_USB_CALLBACK_EV
                                 ENT_HANDLER *****************
  5462                           ; Defined at:
  5463                           ;		line 402 in file "X:\mplab\mini project\new u
                                 ntouched\USB Io board fimware source\usbcallback
                                 .c"
  5464                           ; Parameters:
  5465                           ;		event          size:   2offs:   0	type: enum 
                                 E2684
  5466                           ;		pdata          size:   2offs:   2	type: PTR v
                                 oid ; Largest target is 255
  5467                           ;		 -> USBActiveConfiguration(1), USTATcopy(1), 
                                 RAM(255), 
  5468                           ;		size           size:   2offs:   4	type: unsig
                                 ned short 
  5469                           ; Auto variables:
  5470                           ;		None
  5471                           ; Return value:
  5472                           ;		type: enum E5
  5473                           ;		size: 1
  5474                           ; Registers used:
  5475                           ;		wreg, fsr0l, fsr0h, status,2, status,0, prodl
                                 , prodh, cstack
  5476                           ; Tracked objects:
  5477                           ;		On entry : 0/0
  5478                           ;		On exit  : 0/0
  5479                           ;		Unchanged: 0/0
  5480                           ; Data sizes:
  5481                           ;		Autos:    0
  5482                           ;		Params:   6
  5483                           ;		Temp:     2
  5484                           ;		Total:    8
  5485                           ; This function calls:
  5486                           ;		_USBCBInitEP
  5487                           ;		_USBCBStdSetDscHandler
  5488                           ;		_USBCBCheckOtherReq
  5489                           ;		_USBCB_SOF_Handler
  5490                           ;		_USBCBSuspend
  5491                           ;		_USBCBWakeFromSuspend
  5492                           ;		_USBCBErrorHandler
  5493                           ; This function is called by:
  5494                           ;		_USBDeviceTasks
  5495                           ;		_USBSuspend
  5496                           ;		_USBWakeFromSuspend
  5497                           ;		_USBCtrlTrfSetupHandler
  5498                           ;		_USBCheckStdRequest
  5499                           ;		_USBStdSetCfgHandler
  5500                           ; This function uses a non-reentrant model
  5501                           ; 
  5502                                   psect   text22,class=CODE,space=0,reloc=
                                 2
  5503                           
  5504                           	opt lm
  5505                           	file	"X:\mplab\mini project\new untouched\USB I
                                 o board fimware source\usbcallback.c"
  5506                           	line	402
  5507  000000                     	__size_of_USER_USB_CALLBACK_EVENT_HANDLER	equ	_
                                 _end_of_USER_USB_CALLBACK_EVENT_HANDLER-_USER_US
                                 B_CALLBACK_EVENT_HANDLER
  5508                           ;usbcallback.c: 401: BOOL USER_USB_CALLBACK_EVEN
                                 T_HANDLER(USB_EVENT event, void *pdata, WORD siz
                                 e)
  5509                           ;usbcallback.c: 402: {
  5510                           	
  5511  001DB8                     _USER_USB_CALLBACK_EVENT_HANDLER:		; BSR set to:
                                  ?
  5512                           
  5513                           	opt stack 23
  5514                           	line	403
  5515  001DB8  EFFF  F00E         	goto	l1207
  5516                           	line	405
  5517                           ;usbcallback.c: 404: {
  5518                           ;usbcallback.c: 405: case EVENT_CONFIGURED:
  5519                           	
  5520  001DBC                     l1208:		; BSR set to: ?
  5521                           
  5522                           	line	406
  5523                           ;usbcallback.c: 406: USBCBInitEP();
  5524  001DBC  EC35  F010         	call	_USBCBInitEP	;wreg free
  5525                           	line	407
  5526                           ;usbcallback.c: 407: break;
  5527  001DC0  EF28  F00F         	goto	l1206
  5528                           	line	408
  5529                           ;usbcallback.c: 408: case EVENT_SET_DESCRIPTOR:
  5530                           	
  5531  001DC4                     l1209:		; BSR set to: ?
  5532                           
  5533                           	line	409
  5534                           ;usbcallback.c: 409: USBCBStdSetDscHandler();
  5535  001DC4  EC44  F011         	call	_USBCBStdSetDscHandler	;wreg free
  5536                           	line	410
  5537                           ;usbcallback.c: 410: break;
  5538  001DC8  EF28  F00F         	goto	l1206
  5539                           	line	411
  5540                           ;usbcallback.c: 411: case EVENT_EP0_REQUEST:
  5541                           	
  5542  001DCC                     l1210:		; BSR set to: ?
  5543                           
  5544                           	line	412
  5545                           ;usbcallback.c: 412: USBCBCheckOtherReq();
  5546  001DCC  EC3D  F011         	call	_USBCBCheckOtherReq	;wreg free
  5547                           	line	413
  5548                           ;usbcallback.c: 413: break;
  5549  001DD0  EF28  F00F         	goto	l1206
  5550                           	line	414
  5551                           ;usbcallback.c: 414: case EVENT_SOF:
  5552                           	
  5553  001DD4                     l1211:		; BSR set to: ?
  5554                           
  5555                           	line	415
  5556                           ;usbcallback.c: 415: USBCB_SOF_Handler();
  5557  001DD4  EC41  F011         	call	_USBCB_SOF_Handler	;wreg free
  5558                           	line	416
  5559                           ;usbcallback.c: 416: break;
  5560  001DD8  EF28  F00F         	goto	l1206
  5561                           	line	417
  5562                           ;usbcallback.c: 417: case EVENT_SUSPEND:
  5563                           	
  5564  001DDC                     l1212:		; BSR set to: ?
  5565                           
  5566                           	line	418
  5567                           ;usbcallback.c: 418: USBCBSuspend();
  5568  001DDC  EC42  F011         	call	_USBCBSuspend	;wreg free
  5569                           	line	419
  5570                           ;usbcallback.c: 419: break;
  5571  001DE0  EF28  F00F         	goto	l1206
  5572                           	line	420
  5573                           ;usbcallback.c: 420: case EVENT_RESUME:
  5574                           	
  5575  001DE4                     l1213:		; BSR set to: ?
  5576                           
  5577                           	line	421
  5578                           ;usbcallback.c: 421: USBCBWakeFromSuspend();
  5579  001DE4  EC43  F011         	call	_USBCBWakeFromSuspend	;wreg free
  5580                           	line	422
  5581                           ;usbcallback.c: 422: break;
  5582  001DE8  EF28  F00F         	goto	l1206
  5583                           	line	423
  5584                           ;usbcallback.c: 423: case EVENT_BUS_ERROR:
  5585                           	
  5586  001DEC                     l1214:		; BSR set to: ?
  5587                           
  5588                           	line	424
  5589                           ;usbcallback.c: 424: USBCBErrorHandler();
  5590  001DEC  EC40  F011         	call	_USBCBErrorHandler	;wreg free
  5591                           	line	425
  5592                           ;usbcallback.c: 425: break;
  5593  001DF0  EF28  F00F         	goto	l1206
  5594                           	line	426
  5595                           ;usbcallback.c: 426: case EVENT_TRANSFER:
  5596                           	
  5597  001DF4                     l1215:		; BSR set to: ?
  5598                           
  5599                           	line	427
  5600                           # 427 "X:\mplab\mini project\new untouched\USB I
                                 o board fimware source\usbcallback.c"
  5601  001DF4  F000               NOP ;#
  5602                                   psect   text22
  5603                           	line	428
  5604                           ;usbcallback.c: 427: asm("NOP");;
  5605                           ;usbcallback.c: 428: break;
  5606  001DF6  EF28  F00F         	goto	l1206
  5607                           	line	429
  5608                           ;usbcallback.c: 429: default:
  5609                           	
  5610  001DFA                     l1216:		; BSR set to: ?
  5611                           
  5612                           	line	430
  5613                           ;usbcallback.c: 430: break;
  5614  001DFA  EF28  F00F         	goto	l1206
  5615                           	line	403
  5616                           	
  5617  001DFE                     l1207:		; BSR set to: ?
  5618                           
  5619  001DFE  0101               	movlb	1	; () banked
  5620  001E00  C108  F10E         	movff	(USER_USB_CALLBACK_EVENT_HANDLER@event),?
                                 ?_USER_USB_CALLBACK_EVENT_HANDLER+0+0
  5621  001E04  0101               	movlb	1	; () banked
  5622  001E06  C109  F10F         	movff	(USER_USB_CALLBACK_EVENT_HANDLER@event+1)
                                 ,??_USER_USB_CALLBACK_EVENT_HANDLER+0+0+1
  5623  001E0A  0101               	movlb	1	; () banked
  5624  001E0C  EF20  F00F         	goto	l30016
  5625  001E10                     l30017:
  5626  001E10  0101               	movlb	1	; () banked
  5627  001E12  510E               	movf	(??_USER_USB_CALLBACK_EVENT_HANDLER+0+0)&0
                                 ffh,w
  5628  001E14  0A01               	xorlw	1 ^ 0
  5629  001E16  E0D2               	bz	l1208
  5630  001E18  0A03               	xorlw	2 ^ 1
  5631  001E1A  E0D4               	bz	l1209
  5632  001E1C  0A01               	xorlw	3 ^ 2
  5633  001E1E  E0D6               	bz	l1210
  5634  001E20  0A71               	xorlw	114 ^ 3
  5635  001E22  E0E8               	bz	l1215
  5636  001E24  0A01               	xorlw	115 ^ 114
  5637  001E26  E0D6               	bz	l1211
  5638  001E28  0A07               	xorlw	116 ^ 115
  5639  001E2A  E0DC               	bz	l1213
  5640  001E2C  0A01               	xorlw	117 ^ 116
  5641  001E2E  E0D6               	bz	l1212
  5642  001E30  EFFD  F00E         	goto	l1216
  5643  001E34                     l30018:
  5644  001E34  0101               	movlb	1	; () banked
  5645  001E36  510E               	movf	(??_USER_USB_CALLBACK_EVENT_HANDLER+0+0)&0
                                 ffh,w
  5646  001E38  0AFF               	xorlw	255 ^ 0
  5647  001E3A  E0D8               	bz	l1214
  5648  001E3C  EFFD  F00E         	goto	l1216
  5649                           
  5650  001E40                     l30016:
  5651  001E40  0101               	movlb	1	; () banked
  5652  001E42  510F               	movf	(??_USER_USB_CALLBACK_EVENT_HANDLER+0+1)&0
                                 ffh,w
  5653  001E44  0A00               	xorlw	0 ^ 0
  5654  001E46  E0E4               	bz	l30017
  5655  001E48  0A7F               	xorlw	127 ^ 0
  5656  001E4A  E0F4               	bz	l30018
  5657  001E4C  EFFD  F00E         	goto	l1216
  5658                           
  5659                           	line	431
  5660                           	
  5661  001E50                     l1206:		; BSR set to: ?
  5662                           
  5663                           	line	432
  5664  001E50  EF2A  F00F         	goto	l1205
  5665                           	line	433
  5666                           ;usbcallback.c: 433: }
  5667  001E54                     l1205:
  5668                           			; BSR set to: ?
  5669                           
  5670  001E54  0012               	return
  5671                           	opt stack 0
  5672                           GLOBAL __end_of_USER_USB_CALLBACK_EVENT_HANDLER
  5673  001E56                     	__end_of_USER_USB_CALLBACK_EVENT_HANDLER:
  5674                           	FNSIZE	_USER_USB_CALLBACK_EVENT_HANDLER,2,6
  5675                           ; =============== function _USER_USB_CALLBACK_EV
                                 ENT_HANDLER ends ============
  5676                           
  5677                           	signat	_USER_USB_CALLBACK_EVENT_HANDLER,12409
  5678                           	global	_USBCBCheckOtherReq
  5679                           	global	??_USBCBCheckOtherReq
  5680                           	global	?_USBCBCheckOtherReq
  5681                           
  5682                           ; *************** function _USBCBCheckOtherReq *
                                 ****************
  5683                           ; Defined at:
  5684                           ;		line 238 in file "X:\mplab\mini project\new u
                                 ntouched\USB Io board fimware source\usbcallback
                                 .c"
  5685                           ; Parameters:
  5686                           ;		None
  5687                           ; Auto variables:
  5688                           ;		None
  5689                           ; Return value:
  5690                           ;		type: void 
  5691                           ;		size: 0
  5692                           ; Registers used:
  5693                           ;		wreg, status,2, status,0, cstack
  5694                           ; Tracked objects:
  5695                           ;		On entry : 0/0
  5696                           ;		On exit  : 0/0
  5697                           ;		Unchanged: 0/0
  5698                           ; Data sizes:
  5699                           ;		Autos:    0
  5700                           ;		Params:   0
  5701                           ;		Temp:     0
  5702                           ;		Total:    0
  5703                           ; This function calls:
  5704                           ;		_USBCheckHIDRequest
  5705                           ; This function is called by:
  5706                           ;		_USER_USB_CALLBACK_EVENT_HANDLER
  5707                           ; This function uses a non-reentrant model
  5708                           ; 
  5709                                   psect   text23,class=CODE,space=0,reloc=
                                 2
  5710                           
  5711                           	opt lm
  5712                           	file	"X:\mplab\mini project\new untouched\USB I
                                 o board fimware source\usbcallback.c"
  5713                           	line	238
  5714  000000                     	__size_of_USBCBCheckOtherReq	equ	__end_of_USBCB
                                 CheckOtherReq-_USBCBCheckOtherReq
  5715                           ;usbcallback.c: 237: void USBCBCheckOtherReq(voi
                                 d)
  5716                           ;usbcallback.c: 238: {
  5717                           	
  5718  00227A                     _USBCBCheckOtherReq:		; BSR set to: ?
  5719                           
  5720                           	opt stack 22
  5721                           	line	239
  5722                           ;usbcallback.c: 239: USBCheckHIDRequest();
  5723  00227A  ECBD  F005         	call	_USBCheckHIDRequest	;wreg free
  5724                           	line	240
  5725                           ;usbcallback.c: 240: }
  5726  00227E                     l1198:
  5727                           			; BSR set to: ?
  5728                           
  5729  00227E  0012               	return
  5730                           	opt stack 0
  5731                           GLOBAL __end_of_USBCBCheckOtherReq
  5732  002280                     	__end_of_USBCBCheckOtherReq:
  5733                           	FNSIZE	_USBCBCheckOtherReq,0,0
  5734                           ; =============== function _USBCBCheckOtherReq e
                                 nds ============
  5735                           
  5736                           	signat	_USBCBCheckOtherReq,88
  5737                           	global	_USBCBStdSetDscHandler
  5738                           	global	??_USBCBStdSetDscHandler
  5739                           	global	?_USBCBStdSetDscHandler
  5740                           
  5741                           ; *************** function _USBCBStdSetDscHandle
                                 r *****************
  5742                           ; Defined at:
  5743                           ;		line 263 in file "X:\mplab\mini project\new u
                                 ntouched\USB Io board fimware source\usbcallback
                                 .c"
  5744                           ; Parameters:
  5745                           ;		None
  5746                           ; Auto variables:
  5747                           ;		None
  5748                           ; Return value:
  5749                           ;		type: void 
  5750                           ;		size: 0
  5751                           ; Registers used:
  5752                           ;		None
  5753                           ; Tracked objects:
  5754                           ;		On entry : 0/0
  5755                           ;		On exit  : 0/0
  5756                           ;		Unchanged: 0/0
  5757                           ; Data sizes:
  5758                           ;		Autos:    0
  5759                           ;		Params:   0
  5760                           ;		Temp:     0
  5761                           ;		Total:    0
  5762                           ; This function calls:
  5763                           ;		Nothing
  5764                           ; This function is called by:
  5765                           ;		_USER_USB_CALLBACK_EVENT_HANDLER
  5766                           ; This function uses a non-reentrant model
  5767                           ; 
  5768                                   psect   text24,class=CODE,space=0,reloc=
                                 2
  5769                           
  5770                           	opt lm
  5771                           	file	"X:\mplab\mini project\new untouched\USB I
                                 o board fimware source\usbcallback.c"
  5772                           	line	263
  5773  000000                     	__size_of_USBCBStdSetDscHandler	equ	__end_of_US
                                 BCBStdSetDscHandler-_USBCBStdSetDscHandler
  5774                           ;usbcallback.c: 262: void USBCBStdSetDscHandler(
                                 void)
  5775                           ;usbcallback.c: 263: {
  5776                           	
  5777  002288                     _USBCBStdSetDscHandler:		; BSR set to: ?
  5778                           
  5779                           	opt stack 22
  5780                           	line	265
  5781  002288                     l1199:
  5782                           			; BSR set to: ?
  5783                           
  5784  002288  0012               	return
  5785                           	opt stack 0
  5786                           GLOBAL __end_of_USBCBStdSetDscHandler
  5787  00228A                     	__end_of_USBCBStdSetDscHandler:
  5788                           	FNSIZE	_USBCBStdSetDscHandler,0,0
  5789                           ; =============== function _USBCBStdSetDscHandle
                                 r ends ============
  5790                           
  5791                           	signat	_USBCBStdSetDscHandler,88
  5792                           	global	_USBCBInitEP
  5793                           	global	??_USBCBInitEP
  5794                           	global	?_USBCBInitEP
  5795                           
  5796                           ; *************** function _USBCBInitEP ********
                                 *********
  5797                           ; Defined at:
  5798                           ;		line 289 in file "X:\mplab\mini project\new u
                                 ntouched\USB Io board fimware source\usbcallback
                                 .c"
  5799                           ; Parameters:
  5800                           ;		None
  5801                           ; Auto variables:
  5802                           ;		None
  5803                           ; Return value:
  5804                           ;		type: void 
  5805                           ;		size: 0
  5806                           ; Registers used:
  5807                           ;		wreg, fsr0l, fsr0h, status,2, status,0, prodl
                                 , prodh, cstack
  5808                           ; Tracked objects:
  5809                           ;		On entry : 0/0
  5810                           ;		On exit  : 0/0
  5811                           ;		Unchanged: 0/0
  5812                           ; Data sizes:
  5813                           ;		Autos:    0
  5814                           ;		Params:   0
  5815                           ;		Temp:     3
  5816                           ;		Total:    3
  5817                           ; This function calls:
  5818                           ;		_USBEnableEndpoint
  5819                           ;		_USBTransferOnePacket
  5820                           ; This function is called by:
  5821                           ;		_USER_USB_CALLBACK_EVENT_HANDLER
  5822                           ; This function uses a non-reentrant model
  5823                           ; 
  5824                                   psect   text25,class=CODE,space=0,reloc=
                                 2
  5825                           
  5826                           	opt lm
  5827                           	file	"X:\mplab\mini project\new untouched\USB I
                                 o board fimware source\usbcallback.c"
  5828                           	line	289
  5829  000000                     	__size_of_USBCBInitEP	equ	__end_of_USBCBInitEP-
                                 _USBCBInitEP
  5830                           ;usbcallback.c: 288: void USBCBInitEP(void)
  5831                           ;usbcallback.c: 289: {
  5832                           	
  5833  00206A                     _USBCBInitEP:		; BSR set to: ?
  5834                           
  5835                           	opt stack 22
  5836                           	line	291
  5837                           ;usbcallback.c: 291: USBEnableEndpoint(1,0x02|0x
                                 04|0x10|0x08);
  5838  00206A  0101               	movlb	1	; () banked
  5839  00206C  6F10               	movwf	(??_USBCBInitEP+0+0)&0ffh
  5840  00206E  0E1E               	movlw	low(01Eh)
  5841  002070  0101               	movlb	1	; () banked
  5842  002072  0101               	movlb	1	; () banked
  5843  002074  6F14               	movwf	(0+(?_USBEnableEndpoint+01h))&0ffh
  5844  002076  0101               	movlb	1	; () banked
  5845  002078  5110               	movf	(??_USBCBInitEP+0+0)&0ffh,w
  5846  00207A  0101               	movlb	1	; () banked
  5847  00207C  6F11               	movwf	(??_USBCBInitEP+1+0)&0ffh
  5848  00207E  0E01               	movlw	low(01h)
  5849  002080  0101               	movlb	1	; () banked
  5850  002082  0101               	movlb	1	; () banked
  5851  002084  6F13               	movwf	((?_USBEnableEndpoint))&0ffh
  5852  002086  0101               	movlb	1	; () banked
  5853  002088  5111               	movf	(??_USBCBInitEP+1+0)&0ffh,w
  5854  00208A  EC72  F00F         	call	_USBEnableEndpoint	;wreg free
  5855                           	line	293
  5856                           ;usbcallback.c: 293: USBOutHandle = USBTransferO
                                 nePacket(1,0,(BYTE*)&ReceivedDataBuffer,64);
  5857  00208E  0101               	movlb	1	; () banked
  5858  002090  6F10               	movwf	(??_USBCBInitEP+0+0)&0ffh
  5859  002092  0E40               	movlw	low(040h)
  5860  002094  0101               	movlb	1	; () banked
  5861  002096  0101               	movlb	1	; () banked
  5862  002098  6F17               	movwf	(0+(?_USBTransferOnePacket+04h))&0ffh
  5863  00209A  0101               	movlb	1	; () banked
  5864  00209C  5110               	movf	(??_USBCBInitEP+0+0)&0ffh,w
  5865  00209E  0104               	movlb	4	; () banked
  5866  0020A0  0E80               	movlw	low(1152)
  5867  0020A2  0101               	movlb	1	; () banked
  5868  0020A4  0101               	movlb	1	; () banked
  5869  0020A6  6F15               	movwf	(0+(?_USBTransferOnePacket+02h))&0ffh
  5870  0020A8  0104               	movlb	4	; () banked
  5871  0020AA  0E04               	movlw	high(1152)
  5872  0020AC  0101               	movlb	1	; () banked
  5873  0020AE  6F16               	movwf	(1+(?_USBTransferOnePacket+02h))&0ffh
  5874  0020B0  0101               	movlb	1	; () banked
  5875  0020B2  6F11               	movwf	(??_USBCBInitEP+1+0)&0ffh
  5876  0020B4  0E00               	movlw	low(0)
  5877  0020B6  0101               	movlb	1	; () banked
  5878  0020B8  0101               	movlb	1	; () banked
  5879  0020BA  6F14               	movwf	(0+(?_USBTransferOnePacket+01h))&0ffh
  5880  0020BC  0101               	movlb	1	; () banked
  5881  0020BE  5111               	movf	(??_USBCBInitEP+1+0)&0ffh,w
  5882  0020C0  0101               	movlb	1	; () banked
  5883  0020C2  6F12               	movwf	(??_USBCBInitEP+2+0)&0ffh
  5884  0020C4  0E01               	movlw	low(01h)
  5885  0020C6  0101               	movlb	1	; () banked
  5886  0020C8  0101               	movlb	1	; () banked
  5887  0020CA  6F13               	movwf	((?_USBTransferOnePacket))&0ffh
  5888  0020CC  0101               	movlb	1	; () banked
  5889  0020CE  5112               	movf	(??_USBCBInitEP+2+0)&0ffh,w
  5890  0020D0  EC2E  F00B         	call	_USBTransferOnePacket	;wreg free
  5891  0020D4  C113  F020         	movff	0+?_USBTransferOnePacket,(c:32)
  5892  0020D8  C114  F021         	movff	1+?_USBTransferOnePacket,(c:32+1)
  5893                           	line	294
  5894                           ;usbcallback.c: 294: }
  5895  0020DC                     l1200:
  5896                           			; BSR set to: ?
  5897                           
  5898  0020DC  0012               	return
  5899                           	opt stack 0
  5900                           GLOBAL __end_of_USBCBInitEP
  5901  0020DE                     	__end_of_USBCBInitEP:
  5902                           	FNSIZE	_USBCBInitEP,3,0
  5903                           ; =============== function _USBCBInitEP ends ===
                                 =========
  5904                           
  5905                           	signat	_USBCBInitEP,88
  5906                           	global	_USBCB_SOF_Handler
  5907                           	global	??_USBCB_SOF_Handler
  5908                           	global	?_USBCB_SOF_Handler
  5909                           
  5910                           ; *************** function _USBCB_SOF_Handler **
                                 ***************
  5911                           ; Defined at:
  5912                           ;		line 164 in file "X:\mplab\mini project\new u
                                 ntouched\USB Io board fimware source\usbcallback
                                 .c"
  5913                           ; Parameters:
  5914                           ;		None
  5915                           ; Auto variables:
  5916                           ;		None
  5917                           ; Return value:
  5918                           ;		type: void 
  5919                           ;		size: 0
  5920                           ; Registers used:
  5921                           ;		None
  5922                           ; Tracked objects:
  5923                           ;		On entry : 0/0
  5924                           ;		On exit  : 0/0
  5925                           ;		Unchanged: 0/0
  5926                           ; Data sizes:
  5927                           ;		Autos:    0
  5928                           ;		Params:   0
  5929                           ;		Temp:     0
  5930                           ;		Total:    0
  5931                           ; This function calls:
  5932                           ;		Nothing
  5933                           ; This function is called by:
  5934                           ;		_USER_USB_CALLBACK_EVENT_HANDLER
  5935                           ; This function uses a non-reentrant model
  5936                           ; 
  5937                                   psect   text26,class=CODE,space=0,reloc=
                                 2
  5938                           
  5939                           	opt lm
  5940                           	file	"X:\mplab\mini project\new untouched\USB I
                                 o board fimware source\usbcallback.c"
  5941                           	line	164
  5942  000000                     	__size_of_USBCB_SOF_Handler	equ	__end_of_USBCB_
                                 SOF_Handler-_USBCB_SOF_Handler
  5943                           ;usbcallback.c: 163: void USBCB_SOF_Handler(void
                                 )
  5944                           ;usbcallback.c: 164: {
  5945                           	
  5946  002282                     _USBCB_SOF_Handler:		; BSR set to: ?
  5947                           
  5948                           	opt stack 22
  5949                           	line	167
  5950                           ;usbcallback.c: 167: }
  5951  002282                     l1196:
  5952                           			; BSR set to: ?
  5953                           
  5954  002282  0012               	return
  5955                           	opt stack 0
  5956                           GLOBAL __end_of_USBCB_SOF_Handler
  5957  002284                     	__end_of_USBCB_SOF_Handler:
  5958                           	FNSIZE	_USBCB_SOF_Handler,0,0
  5959                           ; =============== function _USBCB_SOF_Handler en
                                 ds ============
  5960                           
  5961                           	signat	_USBCB_SOF_Handler,88
  5962                           	global	_USBCBWakeFromSuspend
  5963                           	global	??_USBCBWakeFromSuspend
  5964                           	global	?_USBCBWakeFromSuspend
  5965                           
  5966                           ; *************** function _USBCBWakeFromSuspend
                                  *****************
  5967                           ; Defined at:
  5968                           ;		line 134 in file "X:\mplab\mini project\new u
                                 ntouched\USB Io board fimware source\usbcallback
                                 .c"
  5969                           ; Parameters:
  5970                           ;		None
  5971                           ; Auto variables:
  5972                           ;		None
  5973                           ; Return value:
  5974                           ;		type: void 
  5975                           ;		size: 0
  5976                           ; Registers used:
  5977                           ;		None
  5978                           ; Tracked objects:
  5979                           ;		On entry : 0/0
  5980                           ;		On exit  : 0/0
  5981                           ;		Unchanged: 0/0
  5982                           ; Data sizes:
  5983                           ;		Autos:    0
  5984                           ;		Params:   0
  5985                           ;		Temp:     0
  5986                           ;		Total:    0
  5987                           ; This function calls:
  5988                           ;		Nothing
  5989                           ; This function is called by:
  5990                           ;		_USER_USB_CALLBACK_EVENT_HANDLER
  5991                           ; This function uses a non-reentrant model
  5992                           ; 
  5993                                   psect   text27,class=CODE,space=0,reloc=
                                 2
  5994                           
  5995                           	opt lm
  5996                           	file	"X:\mplab\mini project\new untouched\USB I
                                 o board fimware source\usbcallback.c"
  5997                           	line	134
  5998  000000                     	__size_of_USBCBWakeFromSuspend	equ	__end_of_USB
                                 CBWakeFromSuspend-_USBCBWakeFromSuspend
  5999                           ;usbcallback.c: 133: void USBCBWakeFromSuspend(v
                                 oid)
  6000                           ;usbcallback.c: 134: {
  6001                           	
  6002  002286                     _USBCBWakeFromSuspend:		; BSR set to: ?
  6003                           
  6004                           	opt stack 22
  6005                           	line	143
  6006                           ;usbcallback.c: 143: }
  6007  002286                     l1195:
  6008                           			; BSR set to: ?
  6009                           
  6010  002286  0012               	return
  6011                           	opt stack 0
  6012                           GLOBAL __end_of_USBCBWakeFromSuspend
  6013  002288                     	__end_of_USBCBWakeFromSuspend:
  6014                           	FNSIZE	_USBCBWakeFromSuspend,0,0
  6015                           ; =============== function _USBCBWakeFromSuspend
                                  ends ============
  6016                           
  6017                           	signat	_USBCBWakeFromSuspend,88
  6018                           	global	_USBCBSuspend
  6019                           	global	??_USBCBSuspend
  6020                           	global	?_USBCBSuspend
  6021                           
  6022                           ; *************** function _USBCBSuspend *******
                                 **********
  6023                           ; Defined at:
  6024                           ;		line 44 in file "X:\mplab\mini project\new un
                                 touched\USB Io board fimware source\usbcallback.
                                 c"
  6025                           ; Parameters:
  6026                           ;		None
  6027                           ; Auto variables:
  6028                           ;		None
  6029                           ; Return value:
  6030                           ;		type: void 
  6031                           ;		size: 0
  6032                           ; Registers used:
  6033                           ;		None
  6034                           ; Tracked objects:
  6035                           ;		On entry : 0/0
  6036                           ;		On exit  : 0/0
  6037                           ;		Unchanged: 0/0
  6038                           ; Data sizes:
  6039                           ;		Autos:    0
  6040                           ;		Params:   0
  6041                           ;		Temp:     0
  6042                           ;		Total:    0
  6043                           ; This function calls:
  6044                           ;		Nothing
  6045                           ; This function is called by:
  6046                           ;		_USER_USB_CALLBACK_EVENT_HANDLER
  6047                           ; This function uses a non-reentrant model
  6048                           ; 
  6049                                   psect   text28,class=CODE,space=0,reloc=
                                 2
  6050                           
  6051                           	opt lm
  6052                           	file	"X:\mplab\mini project\new untouched\USB I
                                 o board fimware source\usbcallback.c"
  6053                           	line	44
  6054  000000                     	__size_of_USBCBSuspend	equ	__end_of_USBCBSuspen
                                 d-_USBCBSuspend
  6055                           ;usbcallback.c: 43: void USBCBSuspend(void)
  6056                           ;usbcallback.c: 44: {
  6057                           	
  6058  002284                     _USBCBSuspend:		; BSR set to: ?
  6059                           
  6060                           	opt stack 22
  6061                           	line	74
  6062                           ;usbcallback.c: 74: }
  6063  002284                     l1194:
  6064                           			; BSR set to: ?
  6065                           
  6066  002284  0012               	return
  6067                           	opt stack 0
  6068                           GLOBAL __end_of_USBCBSuspend
  6069  002286                     	__end_of_USBCBSuspend:
  6070                           	FNSIZE	_USBCBSuspend,0,0
  6071                           ; =============== function _USBCBSuspend ends ==
                                 ==========
  6072                           
  6073                           	signat	_USBCBSuspend,88
  6074                           	global	_USBCBErrorHandler
  6075                           	global	??_USBCBErrorHandler
  6076                           	global	?_USBCBErrorHandler
  6077                           
  6078                           ; *************** function _USBCBErrorHandler **
                                 ***************
  6079                           ; Defined at:
  6080                           ;		line 187 in file "X:\mplab\mini project\new u
                                 ntouched\USB Io board fimware source\usbcallback
                                 .c"
  6081                           ; Parameters:
  6082                           ;		None
  6083                           ; Auto variables:
  6084                           ;		None
  6085                           ; Return value:
  6086                           ;		type: void 
  6087                           ;		size: 0
  6088                           ; Registers used:
  6089                           ;		None
  6090                           ; Tracked objects:
  6091                           ;		On entry : 0/0
  6092                           ;		On exit  : 0/0
  6093                           ;		Unchanged: 0/0
  6094                           ; Data sizes:
  6095                           ;		Autos:    0
  6096                           ;		Params:   0
  6097                           ;		Temp:     0
  6098                           ;		Total:    0
  6099                           ; This function calls:
  6100                           ;		Nothing
  6101                           ; This function is called by:
  6102                           ;		_USER_USB_CALLBACK_EVENT_HANDLER
  6103                           ; This function uses a non-reentrant model
  6104                           ; 
  6105                                   psect   text29,class=CODE,space=0,reloc=
                                 2
  6106                           
  6107                           	opt lm
  6108                           	file	"X:\mplab\mini project\new untouched\USB I
                                 o board fimware source\usbcallback.c"
  6109                           	line	187
  6110  000000                     	__size_of_USBCBErrorHandler	equ	__end_of_USBCBE
                                 rrorHandler-_USBCBErrorHandler
  6111                           ;usbcallback.c: 186: void USBCBErrorHandler(void
                                 )
  6112                           ;usbcallback.c: 187: {
  6113                           	
  6114  002280                     _USBCBErrorHandler:		; BSR set to: ?
  6115                           
  6116                           	opt stack 22
  6117                           	line	206
  6118                           ;usbcallback.c: 206: }
  6119  002280                     l1197:
  6120                           			; BSR set to: ?
  6121                           
  6122  002280  0012               	return
  6123                           	opt stack 0
  6124                           GLOBAL __end_of_USBCBErrorHandler
  6125  002282                     	__end_of_USBCBErrorHandler:
  6126                           	FNSIZE	_USBCBErrorHandler,0,0
  6127                           ; =============== function _USBCBErrorHandler en
                                 ds ============
  6128                           
  6129                           	signat	_USBCBErrorHandler,88
  6130                           	global	_USBEnableEndpoint
  6131                           	global	??_USBEnableEndpoint
  6132                           	global	?_USBEnableEndpoint
  6133                           
  6134                           ; *************** function _USBEnableEndpoint **
                                 ***************
  6135                           ; Defined at:
  6136                           ;		line 2377 in file "X:\mplab\mini project\new 
                                 untouched\USB Io board fimware source\usb_device
                                 .c"
  6137                           ; Parameters:
  6138                           ;		ep             size:   1offs:   0	type: unsig
                                 ned char 
  6139                           ;		options        size:   1offs:   1	type: unsig
                                 ned char 
  6140                           ; Auto variables:
  6141                           ;		p           	       	type: PTR unsigned char 
                                 ; Largest target is 1
  6142                           ;		 -> UEP0(1), 
  6143                           ; Return value:
  6144                           ;		type: void 
  6145                           ;		size: 0
  6146                           ; Registers used:
  6147                           ;		wreg, fsr0l, fsr0h, status,2, status,0, prodl
                                 , prodh, cstack
  6148                           ; Tracked objects:
  6149                           ;		On entry : 0/0
  6150                           ;		On exit  : 0/0
  6151                           ;		Unchanged: 0/0
  6152                           ; Data sizes:
  6153                           ;		Autos:    2
  6154                           ;		Params:   2
  6155                           ;		Temp:     2
  6156                           ;		Total:    6
  6157                           ; This function calls:
  6158                           ;		_USBConfigureEndpoint
  6159                           ; This function is called by:
  6160                           ;		_USBCBInitEP
  6161                           ; This function uses a non-reentrant model
  6162                           ; 
  6163                                   psect   text30,class=CODE,space=0,reloc=
                                 2
  6164                           
  6165                           	opt lm
  6166                           	file	"X:\mplab\mini project\new untouched\USB I
                                 o board fimware source\usb_device.c"
  6167                           	line	2377
  6168  000000                     	__size_of_USBEnableEndpoint	equ	__end_of_USBEna
                                 bleEndpoint-_USBEnableEndpoint
  6169                           ;usb_device.c: 2376: void USBEnableEndpoint(BYTE
                                  ep, BYTE options)
  6170                           ;usb_device.c: 2377: {
  6171                           	
  6172  001EE4                     _USBEnableEndpoint:		; BSR set to: ?
  6173                           
  6174                           	opt stack 21
  6175                           	line	2386
  6176                           ;usb_device.c: 2380: {
  6177                           ;usb_device.c: 2381: unsigned char* p;
  6178                           ;usb_device.c: 2386: p = (unsigned char*)(&UEP0+
                                 ep);
  6179  001EE4  0E70               	movlw	low((c:3952))	;volatile
  6180  001EE6  0101               	movlb	1	; () banked
  6181  001EE8  6F17               	movwf	(??_USBEnableEndpoint+2+0)&0ffh
  6182  001EEA  0E0F               	movlw	high((c:3952))	;volatile
  6183  001EEC  6F18               	movwf	(??_USBEnableEndpoint+2+0+1)&0ffh
  6184  001EEE  0101               	movlb	1	; () banked
  6185  001EF0  0101               	movlb	1	; () banked
  6186  001EF2  5113               	movf	((USBEnableEndpoint@ep))&0ffh,w
  6187  001EF4  0101               	movlb	1	; () banked
  6188  001EF6  2717               	addwf	(??_USBEnableEndpoint+2+0)&0ffh
  6189  001EF8  0E00               	movlw	0
  6190  001EFA  0101               	movlb	1	; () banked
  6191  001EFC  2318               	addwfc	(??_USBEnableEndpoint+2+1)&0ffh
  6192  001EFE  C117  F115         	movff	??_USBEnableEndpoint+2+0,(USBEnableEndpoi
                                 nt@p)
  6193  001F02  C118  F116         	movff	??_USBEnableEndpoint+2+1,(USBEnableEndpoi
                                 nt@p+1)
  6194                           	line	2388
  6195                           ;usb_device.c: 2388: *p = options;
  6196  001F06  C115  FFE9         	movff	(USBEnableEndpoint@p),fsr0l
  6197  001F0A  C116  FFEA         	movff	(USBEnableEndpoint@p+1),fsr0h
  6198  001F0E  0101               	movlb	1	; () banked
  6199  001F10  C114  FFEF         	movff	(USBEnableEndpoint@options),indf0
  6200                           
  6201                           	line	2391
  6202                           ;usb_device.c: 2389: }
  6203                           ;usb_device.c: 2391: if(options & 0x04)
  6204  001F14  0101               	movlb	1	; () banked
  6205                           	
  6206  001F16  0101               	movlb	1	; () banked
  6207  001F18  A514               	btfss	((USBEnableEndpoint@options))&0ffh,(2)&7
  6208  001F1A  EF91  F00F         	goto	u3221
  6209  001F1E  EF93  F00F         	goto	u3220
  6210  001F22                     u3221:
  6211  001F22  EF9F  F00F         	goto	l670
  6212  001F26                     u3220:
  6213                           	line	2393
  6214                           ;usb_device.c: 2392: {
  6215                           ;usb_device.c: 2393: USBConfigureEndpoint(ep,0);
  6216  001F26  0101               	movlb	1	; () banked
  6217  001F28  6F17               	movwf	(??_USBEnableEndpoint+2+0)&0ffh
  6218  001F2A  0E00               	movlw	low(0)
  6219  001F2C  0101               	movlb	1	; () banked
  6220  001F2E  0101               	movlb	1	; () banked
  6221  001F30  6F1A               	movwf	(0+(?_USBConfigureEndpoint+01h))&0ffh
  6222  001F32  0101               	movlb	1	; () banked
  6223  001F34  5117               	movf	(??_USBEnableEndpoint+2+0)&0ffh,w
  6224  001F36  C113  F119         	movff	(USBEnableEndpoint@ep),(?_USBConfigureEnd
                                 point)
  6225  001F3A  EC2C  F00D         	call	_USBConfigureEndpoint	;wreg free
  6226                           	line	2394
  6227                           	
  6228  001F3E                     l670:		; BSR set to: ?
  6229                           
  6230                           	line	2395
  6231                           ;usb_device.c: 2394: }
  6232                           ;usb_device.c: 2395: if(options & 0x02)
  6233  001F3E  0101               	movlb	1	; () banked
  6234                           	
  6235  001F40  0101               	movlb	1	; () banked
  6236  001F42  A314               	btfss	((USBEnableEndpoint@options))&0ffh,(1)&7
  6237  001F44  EFA6  F00F         	goto	u3231
  6238  001F48  EFA8  F00F         	goto	u3230
  6239  001F4C                     u3231:
  6240  001F4C  EFB4  F00F         	goto	l671
  6241  001F50                     u3230:
  6242                           	line	2397
  6243                           ;usb_device.c: 2396: {
  6244                           ;usb_device.c: 2397: USBConfigureEndpoint(ep,1);
  6245  001F50  0101               	movlb	1	; () banked
  6246  001F52  6F17               	movwf	(??_USBEnableEndpoint+2+0)&0ffh
  6247  001F54  0E01               	movlw	low(01h)
  6248  001F56  0101               	movlb	1	; () banked
  6249  001F58  0101               	movlb	1	; () banked
  6250  001F5A  6F1A               	movwf	(0+(?_USBConfigureEndpoint+01h))&0ffh
  6251  001F5C  0101               	movlb	1	; () banked
  6252  001F5E  5117               	movf	(??_USBEnableEndpoint+2+0)&0ffh,w
  6253  001F60  C113  F119         	movff	(USBEnableEndpoint@ep),(?_USBConfigureEnd
                                 point)
  6254  001F64  EC2C  F00D         	call	_USBConfigureEndpoint	;wreg free
  6255                           	line	2398
  6256                           	
  6257  001F68                     l671:		; BSR set to: ?
  6258                           
  6259                           	line	2399
  6260                           ;usb_device.c: 2398: }
  6261                           ;usb_device.c: 2399: }
  6262  001F68                     l669:
  6263                           			; BSR set to: ?
  6264                           
  6265  001F68  0012               	return
  6266                           	opt stack 0
  6267                           GLOBAL __end_of_USBEnableEndpoint
  6268  001F6A                     	__end_of_USBEnableEndpoint:
  6269                           	FNSIZE	_USBEnableEndpoint,4,2
  6270                           ; =============== function _USBEnableEndpoint en
                                 ds ============
  6271                           
  6272                           	signat	_USBEnableEndpoint,8312
  6273                           	global	_USBTransferOnePacket
  6274                           	global	??_USBTransferOnePacket
  6275                           	global	?_USBTransferOnePacket
  6276                           
  6277                           ; *************** function _USBTransferOnePacket
                                  *****************
  6278                           ; Defined at:
  6279                           ;		line 2477 in file "X:\mplab\mini project\new 
                                 untouched\USB Io board fimware source\usb_device
                                 .c"
  6280                           ; Parameters:
  6281                           ;		ep             size:   1offs:   0	type: unsig
                                 ned char 
  6282                           ;		dir            size:   1offs:   1	type: unsig
                                 ned char 
  6283                           ;		data           size:   2offs:   2	type: PTR u
                                 nsigned char ; Largest target is 64
  6284                           ;		 -> ToSendDataBuffer(64), ReceivedDataBuffer(
                                 64), 
  6285                           ;		len            size:   1offs:   4	type: unsig
                                 ned char 
  6286                           ; Auto variables:
  6287                           ;		handle      	       	type: PTR volatile struc
                                 t __BDT; Largest target is 40
  6288                           ;		 -> BDT(32), 
  6289                           ; Return value:
  6290                           ;		type: PTR void 
  6291                           ;		size: 2
  6292                           ; Registers used:
  6293                           ;		wreg, fsr0l, fsr0h, status,2, status,0, prodl
                                 , prodh
  6294                           ; Tracked objects:
  6295                           ;		On entry : 0/0
  6296                           ;		On exit  : 0/0
  6297                           ;		Unchanged: 0/0
  6298                           ; Data sizes:
  6299                           ;		Autos:    2
  6300                           ;		Params:   5
  6301                           ;		Temp:     0
  6302                           ;		Total:    7
  6303                           ; This function calls:
  6304                           ;		Nothing
  6305                           ; This function is called by:
  6306                           ;		_ProcessIO
  6307                           ;		_ISR
  6308                           ;		_USBCBInitEP
  6309                           ; This function uses a non-reentrant model
  6310                           ; 
  6311                                   psect   text31,class=CODE,space=0,reloc=
                                 2
  6312                           
  6313                           	opt lm
  6314                           	file	"X:\mplab\mini project\new untouched\USB I
                                 o board fimware source\usb_device.c"
  6315                           	line	2477
  6316  000000                     	__size_of_USBTransferOnePacket	equ	__end_of_USB
                                 TransferOnePacket-_USBTransferOnePacket
  6317                           ;usb_device.c: 2476: void* USBTransferOnePacket(
                                 BYTE ep,BYTE dir,BYTE* data,BYTE len)
  6318                           ;usb_device.c: 2477: {
  6319                           	
  6320  00165C                     _USBTransferOnePacket:		; BSR set to: ?
  6321                           
  6322                           	opt stack 21
  6323                           	line	2481
  6324  00165C  0101               	movlb	1	; () banked
  6325  00165E  0101               	movlb	1	; () banked
  6326  001660  5114               	movf	((USBTransferOnePacket@dir))&0ffh,w
  6327  001662  B4D8               	btfsc	status,2
  6328  001664  EF36  F00B         	goto	u2841
  6329  001668  EF38  F00B         	goto	u2840
  6330  00166C                     u2841:
  6331  00166C  EF4A  F00B         	goto	l676
  6332  001670                     u2840:
  6333                           	line	2484
  6334                           ;usb_device.c: 2482: {
  6335                           ;usb_device.c: 2484: handle = pBDTEntryIn[ep];
  6336  001670  0101               	movlb	1	; () banked
  6337  001672  0101               	movlb	1	; () banked
  6338  001674  5113               	movf	((USBTransferOnePacket@ep))&0ffh,w
  6339  001676  0D02               	mullw	02h
  6340  001678  0E0F               	movlw	low((c:15))
  6341  00167A  24F3               	addwf	(prodl),c,w
  6342  00167C  6EE9               	movwf	c:fsr0l
  6343  00167E  6AEA               	clrf	1+c:fsr0l
  6344  001680  0E00               	movlw	high((c:15))
  6345  001682  22EA               	addwfc	1+c:fsr0l
  6346  001684  0101               	movlb	1	; () banked
  6347  001686  CFEE F118          	movff	postinc0,(USBTransferOnePacket@handle)
  6348  00168A  0101               	movlb	1	; () banked
  6349  00168C  CFED F119          	movff	postdec0,(USBTransferOnePacket@handle+1)
  6350                           	line	2485
  6351                           ;usb_device.c: 2485: }
  6352  001690  EF5A  F00B         	goto	l677
  6353                           	line	2486
  6354                           	
  6355  001694                     l676:		; BSR set to: ?
  6356                           
  6357                           	line	2489
  6358                           ;usb_device.c: 2486: else
  6359                           ;usb_device.c: 2487: {
  6360                           ;usb_device.c: 2489: handle = pBDTEntryOut[ep];
  6361  001694  0101               	movlb	1	; () banked
  6362  001696  0101               	movlb	1	; () banked
  6363  001698  5113               	movf	((USBTransferOnePacket@ep))&0ffh,w
  6364  00169A  0D02               	mullw	02h
  6365  00169C  0E17               	movlw	low((c:23))
  6366  00169E  24F3               	addwf	(prodl),c,w
  6367  0016A0  6EE9               	movwf	c:fsr0l
  6368  0016A2  6AEA               	clrf	1+c:fsr0l
  6369  0016A4  0E00               	movlw	high((c:23))
  6370  0016A6  22EA               	addwfc	1+c:fsr0l
  6371  0016A8  0101               	movlb	1	; () banked
  6372  0016AA  CFEE F118          	movff	postinc0,(USBTransferOnePacket@handle)
  6373  0016AE  0101               	movlb	1	; () banked
  6374  0016B0  CFED F119          	movff	postdec0,(USBTransferOnePacket@handle+1)
  6375                           	line	2490
  6376                           	
  6377  0016B4                     l677:		; BSR set to: ?
  6378                           
  6379                           	line	2503
  6380                           ;usb_device.c: 2490: }
  6381                           ;usb_device.c: 2503: handle->ADR = (BYTE*)data;
  6382  0016B4  0E02               	movlw	low(02h)
  6383  0016B6  0101               	movlb	1	; () banked
  6384  0016B8  0101               	movlb	1	; () banked
  6385  0016BA  2518               	addwf	((USBTransferOnePacket@handle))&0ffh,w
  6386  0016BC  6EE9               	movwf	c:fsr0l
  6387  0016BE  0E00               	movlw	high(02h)
  6388  0016C0  0101               	movlb	1	; () banked
  6389  0016C2  0101               	movlb	1	; () banked
  6390  0016C4  2119               	addwfc	((USBTransferOnePacket@handle+1))&0ffh,w
  6391  0016C6  6EEA               	movwf	1+c:fsr0l
  6392  0016C8  0101               	movlb	1	; () banked
  6393  0016CA  C115  FFEE         	movff	(USBTransferOnePacket@data),postinc0	;vol
                                 atile
  6394  0016CE  0101               	movlb	1	; () banked
  6395  0016D0  C116  FFED         	movff	(USBTransferOnePacket@data+1),postdec0	;v
                                 olatile
  6396                           	line	2504
  6397                           ;usb_device.c: 2504: handle->CNT = len;
  6398  0016D4  0E01               	movlw	low(01h)
  6399  0016D6  0101               	movlb	1	; () banked
  6400  0016D8  0101               	movlb	1	; () banked
  6401  0016DA  2518               	addwf	((USBTransferOnePacket@handle))&0ffh,w
  6402  0016DC  6EE9               	movwf	c:fsr0l
  6403  0016DE  0E00               	movlw	high(01h)
  6404  0016E0  0101               	movlb	1	; () banked
  6405  0016E2  0101               	movlb	1	; () banked
  6406  0016E4  2119               	addwfc	((USBTransferOnePacket@handle+1))&0ffh,w
  6407  0016E6  6EEA               	movwf	1+c:fsr0l
  6408  0016E8  0101               	movlb	1	; () banked
  6409  0016EA  C117  FFEF         	movff	(USBTransferOnePacket@len),indf0
  6410                           
  6411                           	line	2505
  6412                           ;usb_device.c: 2505: handle->STAT.Val &= 0x40;
  6413  0016EE  C118  FFE9         	movff	(USBTransferOnePacket@handle),fsr0l
  6414  0016F2  C119  FFEA         	movff	(USBTransferOnePacket@handle+1),fsr0h
  6415  0016F6  0E40               	movlw	040h
  6416  0016F8  16EF               	andwf	indf0
  6417                           	line	2506
  6418                           ;usb_device.c: 2506: handle->STAT.Val |= 0x80 | 
                                 0x08;
  6419  0016FA  C118  FFE9         	movff	(USBTransferOnePacket@handle),fsr0l
  6420  0016FE  C119  FFEA         	movff	(USBTransferOnePacket@handle+1),fsr0h
  6421  001702  0E88               	movlw	088h
  6422  001704  12EF               	iorwf	indf0
  6423                           	line	2509
  6424                           ;usb_device.c: 2509: if(dir != 0)
  6425  001706  0101               	movlb	1	; () banked
  6426  001708  0101               	movlb	1	; () banked
  6427  00170A  5114               	movf	((USBTransferOnePacket@dir))&0ffh,w
  6428  00170C  B4D8               	btfsc	status,2
  6429  00170E  EF8B  F00B         	goto	u2851
  6430  001712  EF8D  F00B         	goto	u2850
  6431  001716                     u2851:
  6432  001716  EF9B  F00B         	goto	l678
  6433  00171A                     u2850:
  6434                           	line	2512
  6435                           ;usb_device.c: 2510: {
  6436                           ;usb_device.c: 2512: ((BYTE_VAL*)&pBDTEntryIn[ep
                                 ])->Val ^= 0x0004;
  6437  00171A  0101               	movlb	1	; () banked
  6438  00171C  0101               	movlb	1	; () banked
  6439  00171E  5113               	movf	((USBTransferOnePacket@ep))&0ffh,w
  6440  001720  0D02               	mullw	02h
  6441  001722  0E0F               	movlw	low((c:15))
  6442  001724  24F3               	addwf	(prodl),c,w
  6443  001726  6EE9               	movwf	c:fsr0l
  6444  001728  6AEA               	clrf	1+c:fsr0l
  6445  00172A  0E00               	movlw	high((c:15))
  6446  00172C  22EA               	addwfc	1+c:fsr0l
  6447  00172E  0E04               	movlw	04h
  6448  001730  1AEF               	xorwf	indf0
  6449                           	line	2513
  6450                           ;usb_device.c: 2513: }
  6451  001732  EFA7  F00B         	goto	l679
  6452                           	line	2514
  6453                           	
  6454  001736                     l678:		; BSR set to: ?
  6455                           
  6456                           	line	2517
  6457                           ;usb_device.c: 2514: else
  6458                           ;usb_device.c: 2515: {
  6459                           ;usb_device.c: 2517: ((BYTE_VAL*)&pBDTEntryOut[e
                                 p])->Val ^= 0x0004;
  6460  001736  0101               	movlb	1	; () banked
  6461  001738  0101               	movlb	1	; () banked
  6462  00173A  5113               	movf	((USBTransferOnePacket@ep))&0ffh,w
  6463  00173C  0D02               	mullw	02h
  6464  00173E  0E17               	movlw	low((c:23))
  6465  001740  24F3               	addwf	(prodl),c,w
  6466  001742  6EE9               	movwf	c:fsr0l
  6467  001744  6AEA               	clrf	1+c:fsr0l
  6468  001746  0E00               	movlw	high((c:23))
  6469  001748  22EA               	addwfc	1+c:fsr0l
  6470  00174A  0E04               	movlw	04h
  6471  00174C  1AEF               	xorwf	indf0
  6472                           	line	2518
  6473                           	
  6474  00174E                     l679:		; BSR set to: ?
  6475                           
  6476                           	line	2519
  6477  00174E  C118  F113         	movff	(USBTransferOnePacket@handle),(?_USBTrans
                                 ferOnePacket)
  6478  001752  C119  F114         	movff	(USBTransferOnePacket@handle+1),(?_USBTra
                                 nsferOnePacket+1)
  6479  001756  EFAD  F00B         	goto	l675
  6480                           	line	2520
  6481                           ;usb_device.c: 2520: }
  6482  00175A                     l675:
  6483                           			; BSR set to: ?
  6484                           
  6485  00175A  0012               	return
  6486                           	opt stack 0
  6487                           GLOBAL __end_of_USBTransferOnePacket
  6488  00175C                     	__end_of_USBTransferOnePacket:
  6489                           	FNSIZE	_USBTransferOnePacket,2,5
  6490                           ; =============== function _USBTransferOnePacket
                                  ends ============
  6491                           
  6492                           	signat	_USBTransferOnePacket,16506
  6493                           	global	_USBCheckHIDRequest
  6494                           	global	??_USBCheckHIDRequest
  6495                           	global	?_USBCheckHIDRequest
  6496                           
  6497                           ; *************** function _USBCheckHIDRequest *
                                 ****************
  6498                           ; Defined at:
  6499                           ;		line 165 in file "X:\mplab\mini project\new u
                                 ntouched\USB Io board fimware source\usb_functio
                                 n_hid.c"
  6500                           ; Parameters:
  6501                           ;		None
  6502                           ; Auto variables:
  6503                           ;		None
  6504                           ; Return value:
  6505                           ;		type: void 
  6506                           ;		size: 0
  6507                           ; Registers used:
  6508                           ;		wreg, status,2, status,0
  6509                           ; Tracked objects:
  6510                           ;		On entry : 0/0
  6511                           ;		On exit  : 0/0
  6512                           ;		Unchanged: 0/0
  6513                           ; Data sizes:
  6514                           ;		Autos:    0
  6515                           ;		Params:   0
  6516                           ;		Temp:     1
  6517                           ;		Total:    1
  6518                           ; This function calls:
  6519                           ;		Nothing
  6520                           ; This function is called by:
  6521                           ;		_USBCBCheckOtherReq
  6522                           ; This function uses a non-reentrant model
  6523                           ; 
  6524                                   psect   text32,class=CODE,space=0,reloc=
                                 2
  6525                           
  6526                           	opt lm
  6527                           	file	"X:\mplab\mini project\new untouched\USB I
                                 o board fimware source\usb_function_hid.c"
  6528                           	line	165
  6529  000000                     	__size_of_USBCheckHIDRequest	equ	__end_of_USBCh
                                 eckHIDRequest-_USBCheckHIDRequest
  6530                           ;usb_function_hid.c: 164: void USBCheckHIDReques
                                 t(void)
  6531                           ;usb_function_hid.c: 165: {
  6532                           	
  6533  000B7A                     _USBCheckHIDRequest:		; BSR set to: ?
  6534                           
  6535                           	opt stack 21
  6536                           	line	166
  6537  000B7A  0105               	movlb	5	; () banked
  6538  000B7C  5100               	movf	((1280))&0ffh,w	;volatile
  6539  000B7E  0B1F               	andlw	(1<<5)-1
  6540  000B80  0101               	movlb	1	; () banked
  6541  000B82  6F10               	movwf	(??_USBCheckHIDRequest+0+0)&0ffh
  6542  000B84  0101               	movlb	1	; () banked
  6543  000B86  0510               	decf	((??_USBCheckHIDRequest+0+0))&0ffh,w
  6544  000B88  B4D8               	btfsc	status,2
  6545  000B8A  EFC9  F005         	goto	u3811
  6546  000B8E  EFCB  F005         	goto	u3810
  6547  000B92                     u3811:
  6548  000B92  EFCD  F005         	goto	l929
  6549  000B96                     u3810:
  6550  000B96  EF83  F006         	goto	l928
  6551                           	
  6552  000B9A                     l929:		; BSR set to: ?
  6553                           
  6554                           	line	167
  6555                           ;usb_function_hid.c: 167: if(SetupPkt.bIntfID !=
                                  0x00) return;
  6556  000B9A  0105               	movlb	5	; () banked
  6557  000B9C  0105               	movlb	5	; () banked
  6558  000B9E  5104               	movf	(0+(1280+04h))&0ffh,w	;volatile
  6559  000BA0  B4D8               	btfsc	status,2
  6560  000BA2  EFD5  F005         	goto	u3821
  6561  000BA6  EFD7  F005         	goto	u3820
  6562  000BAA                     u3821:
  6563  000BAA  EFD9  F005         	goto	l930
  6564  000BAE                     u3820:
  6565  000BAE  EF83  F006         	goto	l928
  6566                           	
  6567  000BB2                     l930:		; BSR set to: ?
  6568                           
  6569                           	line	174
  6570                           ;usb_function_hid.c: 174: if(SetupPkt.bRequest =
                                 = 6)
  6571  000BB2  0105               	movlb	5	; () banked
  6572  000BB4  0105               	movlb	5	; () banked
  6573  000BB6  5101               	movf	(0+(1280+01h))&0ffh,w	;volatile
  6574  000BB8  0A06               	xorlw	6
  6575                           
  6576  000BBA  A4D8               	btfss	status,2
  6577  000BBC  EFE2  F005         	goto	u3831
  6578  000BC0  EFE4  F005         	goto	u3830
  6579  000BC4                     u3831:
  6580  000BC4  EF29  F006         	goto	l931
  6581  000BC8                     u3830:
  6582                           	line	176
  6583                           ;usb_function_hid.c: 175: {
  6584                           ;usb_function_hid.c: 176: switch(SetupPkt.bDescr
                                 iptorType)
  6585  000BC8  EF1E  F006         	goto	l933
  6586                           	line	178
  6587                           ;usb_function_hid.c: 177: {
  6588                           ;usb_function_hid.c: 178: case 0x21:
  6589                           	
  6590  000BCC                     l934:		; BSR set to: ?
  6591                           
  6592                           	line	179
  6593                           ;usb_function_hid.c: 179: if(USBActiveConfigurat
                                 ion == 1)
  6594  000BCC  041C               	decf	((c:28)),c,w
  6595                           
  6596  000BCE  A4D8               	btfss	status,2
  6597  000BD0  EFEC  F005         	goto	u3841
  6598  000BD4  EFEE  F005         	goto	u3840
  6599  000BD8                     u3841:
  6600  000BD8  EFFC  F005         	goto	l935
  6601  000BDC                     u3840:
  6602                           	line	181
  6603                           ;usb_function_hid.c: 180: {
  6604                           ;usb_function_hid.c: 181: { inPipes[0].pSrc.bRom
                                  = (const BYTE*)&configDescriptor1 + 18; inPipes
                                 [0].wCount.Val = sizeof(USB_HID_DSC)+3; inPipes[
                                 0].info.Val = 0x40 | 0x80 | 0x00; };
  6605  000BDC  0E71               	movlw	low(_configDescriptor1+012h)
  6606  000BDE  6E00               	movwf	((c:0)),c
  6607  000BE0  0E04               	movlw	high(_configDescriptor1+012h)
  6608  000BE2  6E01               	movwf	((c:0+1)),c
  6609  000BE4  0E09               	movlw	low(09h)
  6610  000BE6  6E04               	movwf	(0+((c:0)+04h)),c
  6611  000BE8  0E00               	movlw	high(09h)
  6612  000BEA  6E05               	movwf	(1+((c:0)+04h)),c
  6613  000BEC  0101               	movlb	1	; () banked
  6614  000BEE  6F10               	movwf	(??_USBCheckHIDRequest+0+0)&0ffh
  6615  000BF0  0EC0               	movlw	low(0C0h)
  6616  000BF2  6E03               	movwf	(0+((c:0)+03h)),c
  6617  000BF4  0101               	movlb	1	; () banked
  6618  000BF6  5110               	movf	(??_USBCheckHIDRequest+0+0)&0ffh,w
  6619                           	line	185
  6620                           	
  6621  000BF8                     l935:		; BSR set to: ?
  6622                           
  6623                           	line	186
  6624                           ;usb_function_hid.c: 185: }
  6625                           ;usb_function_hid.c: 186: break;
  6626  000BF8  EF29  F006         	goto	l931
  6627                           	line	187
  6628                           ;usb_function_hid.c: 187: case 0x22:
  6629                           	
  6630  000BFC                     l936:		; BSR set to: ?
  6631                           
  6632                           	line	188
  6633                           ;usb_function_hid.c: 188: if(USBActiveConfigurat
                                 ion == 1)
  6634  000BFC  041C               	decf	((c:28)),c,w
  6635                           
  6636  000BFE  A4D8               	btfss	status,2
  6637  000C00  EF04  F006         	goto	u3851
  6638  000C04  EF06  F006         	goto	u3850
  6639  000C08                     u3851:
  6640  000C08  EFFC  F005         	goto	l935
  6641  000C0C                     u3850:
  6642                           	line	190
  6643                           ;usb_function_hid.c: 189: {
  6644                           ;usb_function_hid.c: 190: { inPipes[0].pSrc.bRom
                                  = (const BYTE*)&hid_rpt01; inPipes[0].wCount.Va
                                 l = sizeof(hid_rpt01); inPipes[0].info.Val = 0x4
                                 0 | 0x80 | 0x00; };
  6645  000C0C  0E88               	movlw	low(_hid_rpt01)
  6646  000C0E  6E00               	movwf	((c:0)),c
  6647  000C10  0E04               	movlw	high(_hid_rpt01)
  6648  000C12  6E01               	movwf	((c:0+1)),c
  6649  000C14  0E1D               	movlw	low(01Dh)
  6650  000C16  6E04               	movwf	(0+((c:0)+04h)),c
  6651  000C18  0E00               	movlw	high(01Dh)
  6652  000C1A  6E05               	movwf	(1+((c:0)+04h)),c
  6653  000C1C  0101               	movlb	1	; () banked
  6654  000C1E  6F10               	movwf	(??_USBCheckHIDRequest+0+0)&0ffh
  6655  000C20  0EC0               	movlw	low(0C0h)
  6656  000C22  6E03               	movwf	(0+((c:0)+03h)),c
  6657  000C24  0101               	movlb	1	; () banked
  6658  000C26  5110               	movf	(??_USBCheckHIDRequest+0+0)&0ffh,w
  6659                           	line	194
  6660                           	
  6661  000C28                     l937:		; BSR set to: ?
  6662                           
  6663                           	line	195
  6664                           ;usb_function_hid.c: 194: }
  6665                           ;usb_function_hid.c: 195: break;
  6666  000C28  EF29  F006         	goto	l931
  6667                           	line	196
  6668                           ;usb_function_hid.c: 196: case 0x23:
  6669                           	
  6670  000C2C                     l938:		; BSR set to: ?
  6671                           
  6672                           	line	197
  6673                           ;usb_function_hid.c: 197: inPipes[0].info.Val = 
                                 0x00 | 0x80;
  6674  000C2C  0101               	movlb	1	; () banked
  6675  000C2E  6F10               	movwf	(??_USBCheckHIDRequest+0+0)&0ffh
  6676  000C30  0E80               	movlw	low(080h)
  6677  000C32  6E03               	movwf	(0+((c:0)+03h)),c
  6678  000C34  0101               	movlb	1	; () banked
  6679  000C36  5110               	movf	(??_USBCheckHIDRequest+0+0)&0ffh,w
  6680                           	line	198
  6681                           ;usb_function_hid.c: 198: break;
  6682  000C38  EF29  F006         	goto	l931
  6683                           	line	176
  6684                           	
  6685  000C3C                     l933:		; BSR set to: ?
  6686                           
  6687  000C3C  0105               	movlb	5	; () banked
  6688  000C3E  0105               	movlb	5	; () banked
  6689  000C40  5103               	movf	(0+(1280+03h))&0ffh,w	;volatile
  6690  000C42  0A21               	xorlw	33 ^ 0
  6691  000C44  E0C3               	bz	l934
  6692  000C46  0A03               	xorlw	34 ^ 33
  6693  000C48  E0D9               	bz	l936
  6694  000C4A  0A01               	xorlw	35 ^ 34
  6695  000C4C  E0EF               	bz	l938
  6696  000C4E  EF29  F006         	goto	l931
  6697                           
  6698                           	line	200
  6699                           	
  6700  000C52                     l931:		; BSR set to: ?
  6701                           
  6702                           	line	202
  6703                           ;usb_function_hid.c: 200: }
  6704                           ;usb_function_hid.c: 202: if(SetupPkt.RequestTyp
                                 e != (0x20>>5))
  6705  000C52  0105               	movlb	5	; () banked
  6706  000C54  3900               	swapf	((1280))&0ffh,w	;volatile
  6707  000C56  32E8               	rrcf	wreg,f
  6708  000C58  0B03               	andlw	(1<<2)-1
  6709  000C5A  0101               	movlb	1	; () banked
  6710  000C5C  6F10               	movwf	(??_USBCheckHIDRequest+0+0)&0ffh
  6711  000C5E  0101               	movlb	1	; () banked
  6712  000C60  0510               	decf	((??_USBCheckHIDRequest+0+0))&0ffh,w
  6713  000C62  B4D8               	btfsc	status,2
  6714  000C64  EF36  F006         	goto	u3861
  6715  000C68  EF38  F006         	goto	u3860
  6716  000C6C                     u3861:
  6717  000C6C  EF3A  F006         	goto	l939
  6718  000C70                     u3860:
  6719                           	line	204
  6720                           ;usb_function_hid.c: 203: {
  6721                           ;usb_function_hid.c: 204: return;
  6722  000C70  EF83  F006         	goto	l928
  6723                           	line	205
  6724                           	
  6725  000C74                     l939:		; BSR set to: ?
  6726                           
  6727                           	line	207
  6728                           ;usb_function_hid.c: 205: }
  6729                           ;usb_function_hid.c: 207: switch(SetupPkt.bReque
                                 st)
  6730  000C74  EF72  F006         	goto	l941
  6731                           	line	209
  6732                           ;usb_function_hid.c: 208: {
  6733                           ;usb_function_hid.c: 209: case 0x01:
  6734                           	
  6735  000C78                     l942:		; BSR set to: ?
  6736                           
  6737                           	line	213
  6738                           ;usb_function_hid.c: 213: break;
  6739  000C78  EF83  F006         	goto	l940
  6740                           	line	219
  6741                           ;usb_function_hid.c: 219: case 0x02:
  6742                           	
  6743  000C7C                     l944:		; BSR set to: ?
  6744                           
  6745                           	line	220
  6746                           ;usb_function_hid.c: 220: { inPipes[0].pSrc.bRam
                                  = (BYTE*)&idle_rate; inPipes[0].wCount.Val = 1;
                                  inPipes[0].info.Val = 0x40 | 0x80 | 0x01; };
  6747  000C7C  0E28               	movlw	low((c:40))
  6748  000C7E  6E00               	movwf	((c:0)),c
  6749  000C80  0E00               	movlw	high((c:40))
  6750  000C82  6E01               	movwf	((c:0+1)),c
  6751  000C84  0E01               	movlw	low(01h)
  6752  000C86  6E04               	movwf	(0+((c:0)+04h)),c
  6753  000C88  0E00               	movlw	high(01h)
  6754  000C8A  6E05               	movwf	(1+((c:0)+04h)),c
  6755  000C8C  0101               	movlb	1	; () banked
  6756  000C8E  6F10               	movwf	(??_USBCheckHIDRequest+0+0)&0ffh
  6757  000C90  0EC1               	movlw	low(0C1h)
  6758  000C92  6E03               	movwf	(0+((c:0)+03h)),c
  6759  000C94  0101               	movlb	1	; () banked
  6760  000C96  5110               	movf	(??_USBCheckHIDRequest+0+0)&0ffh,w
  6761                           	line	224
  6762                           ;usb_function_hid.c: 224: break;
  6763  000C98  EF83  F006         	goto	l940
  6764                           	line	225
  6765                           ;usb_function_hid.c: 225: case 0x0A:
  6766                           	
  6767  000C9C                     l945:		; BSR set to: ?
  6768                           
  6769                           	line	226
  6770                           ;usb_function_hid.c: 226: inPipes[0].info.Val = 
                                 0x00 | 0x80;
  6771  000C9C  0101               	movlb	1	; () banked
  6772  000C9E  6F10               	movwf	(??_USBCheckHIDRequest+0+0)&0ffh
  6773  000CA0  0E80               	movlw	low(080h)
  6774  000CA2  6E03               	movwf	(0+((c:0)+03h)),c
  6775  000CA4  0101               	movlb	1	; () banked
  6776  000CA6  5110               	movf	(??_USBCheckHIDRequest+0+0)&0ffh,w
  6777                           	line	227
  6778                           ;usb_function_hid.c: 227: idle_rate = SetupPkt.W
                                 _Value.byte.HB;
  6779  000CA8  C503 F028          	movff	0+(1280+03h),(c:40)	;volatile
  6780                           	line	228
  6781                           ;usb_function_hid.c: 228: break;
  6782  000CAC  EF83  F006         	goto	l940
  6783                           	line	229
  6784                           ;usb_function_hid.c: 229: case 0x03:
  6785                           	
  6786  000CB0                     l946:		; BSR set to: ?
  6787                           
  6788                           	line	230
  6789                           ;usb_function_hid.c: 230: { inPipes[0].pSrc.bRam
                                  = (BYTE*)&active_protocol; inPipes[0].wCount.Va
                                 l = 1; inPipes[0].info.Val = 0x00 | 0x80 | 0x01;
                                  };
  6790  000CB0  0E27               	movlw	low((c:39))
  6791  000CB2  6E00               	movwf	((c:0)),c
  6792  000CB4  0E00               	movlw	high((c:39))
  6793  000CB6  6E01               	movwf	((c:0+1)),c
  6794  000CB8  0E01               	movlw	low(01h)
  6795  000CBA  6E04               	movwf	(0+((c:0)+04h)),c
  6796  000CBC  0E00               	movlw	high(01h)
  6797  000CBE  6E05               	movwf	(1+((c:0)+04h)),c
  6798  000CC0  0101               	movlb	1	; () banked
  6799  000CC2  6F10               	movwf	(??_USBCheckHIDRequest+0+0)&0ffh
  6800  000CC4  0E81               	movlw	low(081h)
  6801  000CC6  6E03               	movwf	(0+((c:0)+03h)),c
  6802  000CC8  0101               	movlb	1	; () banked
  6803  000CCA  5110               	movf	(??_USBCheckHIDRequest+0+0)&0ffh,w
  6804                           	line	234
  6805                           ;usb_function_hid.c: 234: break;
  6806  000CCC  EF83  F006         	goto	l940
  6807                           	line	235
  6808                           ;usb_function_hid.c: 235: case 0x0B:
  6809                           	
  6810  000CD0                     l947:		; BSR set to: ?
  6811                           
  6812                           	line	236
  6813                           ;usb_function_hid.c: 236: inPipes[0].info.Val = 
                                 0x00 | 0x80;
  6814  000CD0  0101               	movlb	1	; () banked
  6815  000CD2  6F10               	movwf	(??_USBCheckHIDRequest+0+0)&0ffh
  6816  000CD4  0E80               	movlw	low(080h)
  6817  000CD6  6E03               	movwf	(0+((c:0)+03h)),c
  6818  000CD8  0101               	movlb	1	; () banked
  6819  000CDA  5110               	movf	(??_USBCheckHIDRequest+0+0)&0ffh,w
  6820                           	line	237
  6821                           ;usb_function_hid.c: 237: active_protocol = Setu
                                 pPkt.W_Value.byte.LB;
  6822  000CDC  C502 F027          	movff	0+(1280+02h),(c:39)	;volatile
  6823                           	line	238
  6824                           ;usb_function_hid.c: 238: break;
  6825  000CE0  EF83  F006         	goto	l940
  6826                           	line	207
  6827                           	
  6828  000CE4                     l941:		; BSR set to: ?
  6829                           
  6830  000CE4  0105               	movlb	5	; () banked
  6831  000CE6  0105               	movlb	5	; () banked
  6832  000CE8  5101               	movf	(0+(1280+01h))&0ffh,w	;volatile
  6833  000CEA  0A01               	xorlw	1 ^ 0
  6834  000CEC  E0C5               	bz	l942
  6835  000CEE  0A03               	xorlw	2 ^ 1
  6836  000CF0  E0C5               	bz	l944
  6837  000CF2  0A01               	xorlw	3 ^ 2
  6838  000CF4  E0DD               	bz	l946
  6839  000CF6  0A0A               	xorlw	9 ^ 3
  6840  000CF8  E0BF               	bz	l942
  6841  000CFA  0A03               	xorlw	10 ^ 9
  6842  000CFC  E0CF               	bz	l945
  6843  000CFE  0A01               	xorlw	11 ^ 10
  6844  000D00  E0E7               	bz	l947
  6845  000D02  EF83  F006         	goto	l940
  6846                           
  6847                           	line	239
  6848                           	
  6849  000D06                     l940:		; BSR set to: ?
  6850                           
  6851                           	line	241
  6852                           ;usb_function_hid.c: 241: }
  6853  000D06                     l928:
  6854                           			; BSR set to: ?
  6855                           
  6856  000D06  0012               	return
  6857                           	opt stack 0
  6858                           GLOBAL __end_of_USBCheckHIDRequest
  6859  000D08                     	__end_of_USBCheckHIDRequest:
  6860                           	FNSIZE	_USBCheckHIDRequest,1,0
  6861                           ; =============== function _USBCheckHIDRequest e
                                 nds ============
  6862                           
  6863                           	signat	_USBCheckHIDRequest,88
  6864                           	global	_USBConfigureEndpoint
  6865                           	global	??_USBConfigureEndpoint
  6866                           	global	?_USBConfigureEndpoint
  6867                           
  6868                           ; *************** function _USBConfigureEndpoint
                                  *****************
  6869                           ; Defined at:
  6870                           ;		line 2278 in file "X:\mplab\mini project\new 
                                 untouched\USB Io board fimware source\usb_device
                                 .c"
  6871                           ; Parameters:
  6872                           ;		EPNum          size:   1offs:   0	type: unsig
                                 ned char 
  6873                           ;		direction      size:   1offs:   1	type: unsig
                                 ned char 
  6874                           ; Auto variables:
  6875                           ;		workaround  	       	type: unsigned char 
  6876                           ;		handle      	       	type: PTR volatile struc
                                 t __BDT; Largest target is 40
  6877                           ;		 -> BDT(32), 
  6878                           ; Return value:
  6879                           ;		type: void 
  6880                           ;		size: 0
  6881                           ; Registers used:
  6882                           ;		wreg, fsr0l, fsr0h, status,2, status,0, prodl
                                 , prodh
  6883                           ; Tracked objects:
  6884                           ;		On entry : 0/0
  6885                           ;		On exit  : 0/0
  6886                           ;		Unchanged: 0/0
  6887                           ; Data sizes:
  6888                           ;		Autos:    3
  6889                           ;		Params:   2
  6890                           ;		Temp:     2
  6891                           ;		Total:    7
  6892                           ; This function calls:
  6893                           ;		___lwdiv
  6894                           ; This function is called by:
  6895                           ;		_USBEnableEndpoint
  6896                           ; This function uses a non-reentrant model
  6897                           ; 
  6898                                   psect   text33,class=CODE,space=0,reloc=
                                 2
  6899                           
  6900                           	opt lm
  6901                           	file	"X:\mplab\mini project\new untouched\USB I
                                 o board fimware source\usb_device.c"
  6902                           	line	2278
  6903  000000                     	__size_of_USBConfigureEndpoint	equ	__end_of_USB
                                 ConfigureEndpoint-_USBConfigureEndpoint
  6904                           ;usb_device.c: 2277: void USBConfigureEndpoint(B
                                 YTE EPNum, BYTE direction)
  6905                           ;usb_device.c: 2278: {
  6906                           	
  6907  001A58                     _USBConfigureEndpoint:		; BSR set to: ?
  6908                           
  6909                           	opt stack 20
  6910                           	line	2284
  6911  001A58  0104               	movlb	4	; () banked
  6912  001A5A  0E00               	movlw	low(1024)	;volatile
  6913  001A5C  0101               	movlb	1	; () banked
  6914  001A5E  0101               	movlb	1	; () banked
  6915  001A60  6F1C               	movwf	((USBConfigureEndpoint@handle))&0ffh
  6916  001A62  0104               	movlb	4	; () banked
  6917  001A64  0E04               	movlw	high(1024)	;volatile
  6918  001A66  0101               	movlb	1	; () banked
  6919  001A68  6F1D               	movwf	((USBConfigureEndpoint@handle+1))&0ffh
  6920                           	line	2289
  6921                           ;usb_device.c: 2289: workaround = (4*(4*EPNum+2*
                                 direction+0));
  6922  001A6A  0101               	movlb	1	; () banked
  6923  001A6C  0101               	movlb	1	; () banked
  6924  001A6E  511A               	movf	((USBConfigureEndpoint@direction))&0ffh,w
  6925  001A70  0D02               	mullw	02h
  6926  001A72  CFF3 F11E          	movff	prodl,??_USBConfigureEndpoint+3+0
  6927  001A76  0101               	movlb	1	; () banked
  6928  001A78  0101               	movlb	1	; () banked
  6929  001A7A  5119               	movf	((USBConfigureEndpoint@EPNum))&0ffh,w
  6930  001A7C  0D04               	mullw	04h
  6931  001A7E  50F3               	movf	(prodl),c,w
  6932  001A80  0101               	movlb	1	; () banked
  6933  001A82  251E               	addwf	(??_USBConfigureEndpoint+3+0)&0ffh,w
  6934  001A84  0101               	movlb	1	; () banked
  6935  001A86  6F1F               	movwf	(??_USBConfigureEndpoint+4+0)&0ffh
  6936  001A88  0101               	movlb	1	; () banked
  6937  001A8A  90D8               	bcf	status,0
  6938  001A8C  371F               	rlcf	((??_USBConfigureEndpoint+4+0))&0ffh
  6939  001A8E  0101               	movlb	1	; () banked
  6940  001A90  90D8               	bcf	status,0
  6941  001A92  351F               	rlcf	((??_USBConfigureEndpoint+4+0))&0ffh,w
  6942  001A94  0101               	movlb	1	; () banked
  6943  001A96  0101               	movlb	1	; () banked
  6944  001A98  6F1B               	movwf	((USBConfigureEndpoint@workaround))&0ffh
  6945                           	line	2290
  6946                           ;usb_device.c: 2290: workaround = workaround/siz
                                 eof(BDT_ENTRY);
  6947  001A9A  0101               	movlb	1	; () banked
  6948  001A9C  0101               	movlb	1	; () banked
  6949  001A9E  411B               	rrncf	((USBConfigureEndpoint@workaround))&0ffh,
                                 w
  6950  001AA0  42E8               	rrncf	wreg
  6951  001AA2  0B3F               	andlw	(0ffh shr 2) & 0ffh
  6952  001AA4  0101               	movlb	1	; () banked
  6953  001AA6  0101               	movlb	1	; () banked
  6954  001AA8  6F1B               	movwf	((USBConfigureEndpoint@workaround))&0ffh
  6955                           	line	2291
  6956                           ;usb_device.c: 2291: handle += workaround;
  6957  001AAA  0101               	movlb	1	; () banked
  6958  001AAC  0101               	movlb	1	; () banked
  6959  001AAE  511B               	movf	((USBConfigureEndpoint@workaround))&0ffh,w
  6960  001AB0  0D04               	mullw	04h
  6961  001AB2  50F3               	movf	(prodl),c,w
  6962  001AB4  0101               	movlb	1	; () banked
  6963  001AB6  0101               	movlb	1	; () banked
  6964  001AB8  271C               	addwf	((USBConfigureEndpoint@handle))&0ffh
  6965  001ABA  0E00               	movlw	0
  6966  001ABC  0101               	movlb	1	; () banked
  6967  001ABE  0101               	movlb	1	; () banked
  6968  001AC0  231D               	addwfc	((USBConfigureEndpoint@handle+1))&0ffh
  6969                           
  6970                           	line	2295
  6971                           ;usb_device.c: 2295: handle->STAT.UOWN = 0;
  6972  001AC2  C11C  FFE9         	movff	(USBConfigureEndpoint@handle),fsr0l
  6973  001AC6  C11D  FFEA         	movff	(USBConfigureEndpoint@handle+1),fsr0h
  6974  001ACA  0E7F               	movlw	((0 & ((1<<1)-1))<<7)|not (((1<<1)-1)<<7)
  6975  001ACC  16EF               	andwf	(indf0)&0ffh
  6976                           	line	2297
  6977                           ;usb_device.c: 2297: if(direction == 0)
  6978  001ACE  0101               	movlb	1	; () banked
  6979  001AD0  0101               	movlb	1	; () banked
  6980  001AD2  671A               	tstfsz	((USBConfigureEndpoint@direction))&0ffh
  6981  001AD4  EF6E  F00D         	goto	u3241
  6982  001AD8  EF70  F00D         	goto	u3240
  6983  001ADC                     u3241:
  6984  001ADC  EF82  F00D         	goto	l667
  6985  001AE0                     u3240:
  6986                           	line	2299
  6987                           ;usb_device.c: 2298: {
  6988                           ;usb_device.c: 2299: pBDTEntryOut[EPNum] = handl
                                 e;
  6989  001AE0  0101               	movlb	1	; () banked
  6990  001AE2  0101               	movlb	1	; () banked
  6991  001AE4  5119               	movf	((USBConfigureEndpoint@EPNum))&0ffh,w
  6992  001AE6  0D02               	mullw	02h
  6993  001AE8  0E17               	movlw	low((c:23))
  6994  001AEA  24F3               	addwf	(prodl),c,w
  6995  001AEC  6EE9               	movwf	c:fsr0l
  6996  001AEE  6AEA               	clrf	1+c:fsr0l
  6997  001AF0  0E00               	movlw	high((c:23))
  6998  001AF2  22EA               	addwfc	1+c:fsr0l
  6999  001AF4  0101               	movlb	1	; () banked
  7000  001AF6  C11C  FFEE         	movff	(USBConfigureEndpoint@handle),postinc0
  7001  001AFA  0101               	movlb	1	; () banked
  7002  001AFC  C11D  FFED         	movff	(USBConfigureEndpoint@handle+1),postdec0
  7003                           	line	2300
  7004                           ;usb_device.c: 2300: }
  7005  001B00  EF92  F00D         	goto	l668
  7006                           	line	2301
  7007                           	
  7008  001B04                     l667:		; BSR set to: ?
  7009                           
  7010                           	line	2303
  7011                           ;usb_device.c: 2301: else
  7012                           ;usb_device.c: 2302: {
  7013                           ;usb_device.c: 2303: pBDTEntryIn[EPNum] = handle
                                 ;
  7014  001B04  0101               	movlb	1	; () banked
  7015  001B06  0101               	movlb	1	; () banked
  7016  001B08  5119               	movf	((USBConfigureEndpoint@EPNum))&0ffh,w
  7017  001B0A  0D02               	mullw	02h
  7018  001B0C  0E0F               	movlw	low((c:15))
  7019  001B0E  24F3               	addwf	(prodl),c,w
  7020  001B10  6EE9               	movwf	c:fsr0l
  7021  001B12  6AEA               	clrf	1+c:fsr0l
  7022  001B14  0E00               	movlw	high((c:15))
  7023  001B16  22EA               	addwfc	1+c:fsr0l
  7024  001B18  0101               	movlb	1	; () banked
  7025  001B1A  C11C  FFEE         	movff	(USBConfigureEndpoint@handle),postinc0
  7026  001B1E  0101               	movlb	1	; () banked
  7027  001B20  C11D  FFED         	movff	(USBConfigureEndpoint@handle+1),postdec0
  7028                           	line	2304
  7029                           	
  7030  001B24                     l668:		; BSR set to: ?
  7031                           
  7032                           	line	2307
  7033                           ;usb_device.c: 2304: }
  7034                           ;usb_device.c: 2307: handle->STAT.DTS = 0;
  7035  001B24  C11C  FFE9         	movff	(USBConfigureEndpoint@handle),fsr0l
  7036  001B28  C11D  FFEA         	movff	(USBConfigureEndpoint@handle+1),fsr0h
  7037  001B2C  0EBF               	movlw	((0 & ((1<<1)-1))<<6)|not (((1<<1)-1)<<6)
  7038  001B2E  16EF               	andwf	(indf0)&0ffh
  7039                           	line	2308
  7040                           ;usb_device.c: 2308: (handle+1)->STAT.DTS = 1;
  7041  001B30  0E04               	movlw	low(04h)
  7042  001B32  0101               	movlb	1	; () banked
  7043  001B34  0101               	movlb	1	; () banked
  7044  001B36  251C               	addwf	((USBConfigureEndpoint@handle))&0ffh,w
  7045  001B38  6EE9               	movwf	c:fsr0l
  7046  001B3A  0E00               	movlw	high(04h)
  7047  001B3C  0101               	movlb	1	; () banked
  7048  001B3E  0101               	movlb	1	; () banked
  7049  001B40  211D               	addwfc	((USBConfigureEndpoint@handle+1))&0ffh,w
  7050  001B42  6EEA               	movwf	1+c:fsr0l
  7051  001B44  0E40               	movlw	(01h & ((1<<1)-1))<<6
  7052  001B46  12EF               	iorwf	(indf0)&0ffh
  7053                           	line	2325
  7054                           ;usb_device.c: 2325: }
  7055  001B48                     l666:
  7056                           			; BSR set to: ?
  7057                           
  7058  001B48  0012               	return
  7059                           	opt stack 0
  7060                           GLOBAL __end_of_USBConfigureEndpoint
  7061  001B4A                     	__end_of_USBConfigureEndpoint:
  7062                           	FNSIZE	_USBConfigureEndpoint,5,2
  7063                           ; =============== function _USBConfigureEndpoint
                                  ends ============
  7064                           
  7065                           	signat	_USBConfigureEndpoint,8312
  7066                           	global	___lwdiv
  7067                           	global	??___lwdiv
  7068                           	global	?___lwdiv
  7069                           
  7070                           ; *************** function ___lwdiv ************
                                 *****
  7071                           ; Defined at:
  7072                           ;		line 5 in file "C:\Program Files (x86)\HI-TEC
                                 H Software\PICC-18\PRO\9.65\sources\lwdiv.c"
  7073                           ; Parameters:
  7074                           ;		dividend       size:   2offs:   0	type: unsig
                                 ned int 
  7075                           ;		divisor        size:   2offs:   2	type: unsig
                                 ned int 
  7076                           ; Auto variables:
  7077                           ;		counter     	       	type: unsigned char 
  7078                           ;		quotient    	       	type: unsigned int 
  7079                           ; Return value:
  7080                           ;		type: unsigned int 
  7081                           ;		size: 2
  7082                           ; Registers used:
  7083                           ;		wreg, status,2, status,0
  7084                           ; Tracked objects:
  7085                           ;		On entry : 0/0
  7086                           ;		On exit  : 0/0
  7087                           ;		Unchanged: 0/0
  7088                           ; Data sizes:
  7089                           ;		Autos:    3
  7090                           ;		Params:   4
  7091                           ;		Temp:     1
  7092                           ;		Total:    8
  7093                           ; This function calls:
  7094                           ;		Nothing
  7095                           ; This function is called by:
  7096                           ;		_USBConfigureEndpoint
  7097                           ; This function uses a non-reentrant model
  7098                           ; 
  7099                                   psect   text34,class=CODE,space=0,reloc=
                                 2
  7100                           
  7101                           	opt lm
  7102                           	file	"C:\Program Files (x86)\HI-TECH Software\P
                                 ICC-18\PRO\9.65\sources\lwdiv.c"
  7103                           	line	5
  7104  000000                     	__size_of___lwdiv	equ	__end_of___lwdiv-___lwdiv
  7105                           	
  7106  001C2C                     ___lwdiv:		; BSR set to: ?
  7107                           
  7108                           	opt stack 19
  7109                           	line	9
  7110  001C2C  0E00               	movlw	low(0)
  7111  001C2E  0101               	movlb	1	; () banked
  7112  001C30  0101               	movlb	1	; () banked
  7113  001C32  6F25               	movwf	((___lwdiv@quotient))&0ffh
  7114  001C34  0E00               	movlw	high(0)
  7115  001C36  0101               	movlb	1	; () banked
  7116  001C38  6F26               	movwf	((___lwdiv@quotient+1))&0ffh
  7117                           	line	10
  7118  001C3A  0101               	movlb	1	; () banked
  7119  001C3C  0101               	movlb	1	; () banked
  7120  001C3E  5123               	movf	((___lwdiv@divisor+1))&0ffh,w
  7121  001C40  1122               	iorwf ((___lwdiv@divisor))&0ffh,w
  7122                           
  7123  001C42  B4D8               	btfsc	status,2
  7124  001C44  EF26  F00E         	goto	u3251
  7125  001C48  EF28  F00E         	goto	u3250
  7126  001C4C                     u3251:
  7127  001C4C  EF77  F00E         	goto	l1532
  7128  001C50                     u3250:
  7129                           	line	11
  7130  001C50  0101               	movlb	1	; () banked
  7131  001C52  6F27               	movwf	(??___lwdiv+3+0)&0ffh
  7132  001C54  0E01               	movlw	low(01h)
  7133  001C56  0101               	movlb	1	; () banked
  7134  001C58  0101               	movlb	1	; () banked
  7135  001C5A  6F24               	movwf	((___lwdiv@counter))&0ffh
  7136  001C5C  0101               	movlb	1	; () banked
  7137  001C5E  5127               	movf	(??___lwdiv+3+0)&0ffh,w
  7138                           	line	12
  7139  001C60  EF3B  F00E         	goto	l1533
  7140                           	
  7141  001C64                     l1534:		; BSR set to: ?
  7142                           
  7143                           	line	13
  7144  001C64  0101               	movlb	1	; () banked
  7145  001C66  90D8               	bcf	status,0
  7146  001C68  0101               	movlb	1	; () banked
  7147  001C6A  3722               	rlcf	((___lwdiv@divisor))&0ffh
  7148  001C6C  0101               	movlb	1	; () banked
  7149  001C6E  3723               	rlcf	((___lwdiv@divisor+1))&0ffh
  7150                           	line	14
  7151  001C70  0101               	movlb	1	; () banked
  7152  001C72  0101               	movlb	1	; () banked
  7153  001C74  2B24               	incf	((___lwdiv@counter))&0ffh
  7154                           	line	15
  7155                           	
  7156  001C76                     l1533:		; BSR set to: ?
  7157                           
  7158                           	line	12
  7159  001C76  0101               	movlb	1	; () banked
  7160                           	
  7161  001C78  0101               	movlb	1	; () banked
  7162  001C7A  AF23               	btfss	((___lwdiv@divisor+1))&0ffh,(15)&7
  7163  001C7C  EF42  F00E         	goto	u3261
  7164  001C80  EF44  F00E         	goto	u3260
  7165  001C84                     u3261:
  7166  001C84  EF32  F00E         	goto	l1534
  7167  001C88                     u3260:
  7168                           	
  7169  001C88                     l1535:		; BSR set to: ?
  7170                           
  7171                           	line	16
  7172                           	
  7173  001C88                     l1538:		; BSR set to: ?
  7174                           
  7175                           	line	17
  7176  001C88  0101               	movlb	1	; () banked
  7177  001C8A  90D8               	bcf	status,0
  7178  001C8C  0101               	movlb	1	; () banked
  7179  001C8E  3725               	rlcf	((___lwdiv@quotient))&0ffh
  7180  001C90  0101               	movlb	1	; () banked
  7181  001C92  3726               	rlcf	((___lwdiv@quotient+1))&0ffh
  7182                           	line	18
  7183  001C94  0101               	movlb	1	; () banked
  7184  001C96  0101               	movlb	1	; () banked
  7185  001C98  5122               	movf	((___lwdiv@divisor))&0ffh,w
  7186  001C9A  0101               	movlb	1	; () banked
  7187  001C9C  0101               	movlb	1	; () banked
  7188  001C9E  5D20               	subwf	((___lwdiv@dividend))&0ffh,w
  7189  001CA0  0101               	movlb	1	; () banked
  7190  001CA2  0101               	movlb	1	; () banked
  7191  001CA4  5123               	movf	((___lwdiv@divisor+1))&0ffh,w
  7192  001CA6  0101               	movlb	1	; () banked
  7193  001CA8  0101               	movlb	1	; () banked
  7194  001CAA  5921               	subwfb	((___lwdiv@dividend+1))&0ffh,w
  7195  001CAC  A0D8               	btfss	status,0
  7196  001CAE  EF5B  F00E         	goto	u3271
  7197  001CB2  EF5D  F00E         	goto	u3270
  7198  001CB6                     u3271:
  7199  001CB6  EF6C  F00E         	goto	l1539
  7200  001CBA                     u3270:
  7201                           	line	19
  7202  001CBA  0101               	movlb	1	; () banked
  7203  001CBC  0101               	movlb	1	; () banked
  7204  001CBE  5122               	movf	((___lwdiv@divisor))&0ffh,w
  7205  001CC0  0101               	movlb	1	; () banked
  7206  001CC2  0101               	movlb	1	; () banked
  7207  001CC4  5F20               	subwf	((___lwdiv@dividend))&0ffh
  7208  001CC6  0101               	movlb	1	; () banked
  7209  001CC8  0101               	movlb	1	; () banked
  7210  001CCA  5123               	movf	((___lwdiv@divisor+1))&0ffh,w
  7211  001CCC  0101               	movlb	1	; () banked
  7212  001CCE  0101               	movlb	1	; () banked
  7213  001CD0  5B21               	subwfb	((___lwdiv@dividend+1))&0ffh
  7214                           
  7215                           	line	20
  7216  001CD2  0101               	movlb	1	; () banked
  7217  001CD4  0101               	movlb	1	; () banked
  7218  001CD6  8125               	bsf	(0+(0/8)+(___lwdiv@quotient))&0ffh,(0)&7
  7219                           	line	21
  7220                           	
  7221  001CD8                     l1539:		; BSR set to: ?
  7222                           
  7223                           	line	22
  7224  001CD8  0101               	movlb	1	; () banked
  7225  001CDA  90D8               	bcf	status,0
  7226  001CDC  0101               	movlb	1	; () banked
  7227  001CDE  3323               	rrcf	((___lwdiv@divisor+1))&0ffh
  7228  001CE0  0101               	movlb	1	; () banked
  7229  001CE2  3322               	rrcf	((___lwdiv@divisor))&0ffh
  7230                           	line	23
  7231  001CE4  0101               	movlb	1	; () banked
  7232  001CE6  0101               	movlb	1	; () banked
  7233  001CE8  2F24               	decfsz	((___lwdiv@counter))&0ffh
  7234                           	
  7235  001CEA  EF44  F00E         	goto	l1538
  7236                           	
  7237  001CEE                     l1537:		; BSR set to: ?
  7238                           
  7239                           	line	24
  7240                           	
  7241  001CEE                     l1532:		; BSR set to: ?
  7242                           
  7243                           	line	25
  7244  001CEE  C125  F120         	movff	(___lwdiv@quotient),(?___lwdiv)
  7245  001CF2  C126  F121         	movff	(___lwdiv@quotient+1),(?___lwdiv+1)
  7246  001CF6  EF7D  F00E         	goto	l1531
  7247                           	line	26
  7248  001CFA                     l1531:
  7249                           			; BSR set to: ?
  7250                           
  7251  001CFA  0012               	return
  7252                           	opt stack 0
  7253                           GLOBAL __end_of___lwdiv
  7254  001CFC                     	__end_of___lwdiv:
  7255                           	FNSIZE	___lwdiv,4,4
  7256                           ; =============== function ___lwdiv ends =======
                                 =====
  7257                           
  7258                           	signat	___lwdiv,8314
  7259                           	global	_ISR
  7260                           	global	??_ISR
  7261                           	global	?_ISR
  7262                           
  7263                           ; *************** function _ISR ****************
                                 *
  7264                           ; Defined at:
  7265                           ;		line 122 in file "X:\mplab\mini project\new u
                                 ntouched\USB Io board fimware source\main.c"
  7266                           ; Parameters:
  7267                           ;		None
  7268                           ; Auto variables:
  7269                           ;		None
  7270                           ; Return value:
  7271                           ;		type: void 
  7272                           ;		size: 0
  7273                           ; Registers used:
  7274                           ;		wreg, fsr0l, fsr0h, status,2, status,0, prodl
                                 , prodh, cstack
  7275                           ; Tracked objects:
  7276                           ;		On entry : 0/0
  7277                           ;		On exit  : 0/0
  7278                           ;		Unchanged: 0/0
  7279                           ; Data sizes:
  7280                           ;		Autos:    2
  7281                           ;		Params:   0
  7282                           ;		Temp:    17
  7283                           ;		Total:   19
  7284                           ; This function calls:
  7285                           ;		i2_USBTransferOnePacket
  7286                           ; This function is called by:
  7287                           ;		Interrupt level 2
  7288                           ; This function uses a non-reentrant model
  7289                           ; 
  7290                                   psect   text35,class=CODE,space=0,reloc=
                                 2
  7291                           
  7292                           	opt lm
  7293                           	file	"X:\mplab\mini project\new untouched\USB I
                                 o board fimware source\main.c"
  7294                           	line	122
  7295  000000                     	__size_of_ISR	equ	__end_of_ISR-_ISR
  7296                           ;main.c: 121: void interrupt ISR()
  7297                           ;main.c: 122: {
  7298                           	
  7299  001012                     _ISR:		; BSR set to: ?
  7300                           
  7301  001012  0006               	pop	; remove dummy address from shadow register
                                  refresh
  7302                           
  7303                           	opt stack 31
  7304                                   psect   intcode,class=CODE,space=0,reloc
                                 =2
  7305                           	global	int_func
  7306  000008                     int_func:
  7307                                   psect   intcode
  7308  000008  CFFA F12D          	movff	pclat+0,??_ISR+5
  7309  00000C  CFFB F12E          	movff	pclat+1,??_ISR+6
  7310  000010  CFE9 F12F          	movff	fsr0l+0,??_ISR+7
  7311  000014  ED09  F008         	call	_ISR,f	;refresh shadow registers
  7312                                   psect   text35
  7313  001014  CFEA F130          	movff	fsr0h+0,??_ISR+8
  7314  001018  CFE1 F131          	movff	fsr1l+0,??_ISR+9
  7315  00101C  CFE2 F132          	movff	fsr1h+0,??_ISR+10
  7316  001020  CFD9 F133          	movff	fsr2l+0,??_ISR+11
  7317  001024  CFDA F134          	movff	fsr2h+0,??_ISR+12
  7318  001028  CFF3 F135          	movff	prodl+0,??_ISR+13
  7319  00102C  CFF4 F136          	movff	prodh+0,??_ISR+14
  7320  001030  CFF6 F137          	movff	tblptrl+0,??_ISR+15
  7321  001034  CFF7 F138          	movff	tblptrh+0,??_ISR+16
  7322  001038  CFF8 F139          	movff	tblptru+0,??_ISR+17
  7323  00103C  CFF5 F13A          	movff	tablat+0,??_ISR+18
  7324                           	line	123
  7325                           ;main.c: 123: if (TMR1IF=1)
  7326  001040  809E               	bsf	c:(31984/8),(31984)&7	;volatile
  7327  001042  A09E               	btfss	c:(31984/8),(31984)&7	;volatile
  7328  001044  EF26  F008         	goto	i2u2861
  7329  001048  EF28  F008         	goto	i2u2860
  7330  00104C                     i2u2861:
  7331  00104C  EFAA  F008         	goto	i2l265
  7332  001050                     i2u2860:
  7333                           	line	125
  7334                           ;main.c: 124: {
  7335                           ;main.c: 125: T0CON=0x00 ;
  7336  001050  0101               	movlb	1	; () banked
  7337  001052  6F2A               	movwf	(??_ISR+2+0)&0ffh
  7338  001054  0E00               	movlw	low(0)
  7339  001056  6ED5               	movwf	((c:4053)),c
  7340  001058  0101               	movlb	1	; () banked
  7341  00105A  512A               	movf	(??_ISR+2+0)&0ffh,w
  7342                           	line	126
  7343                           ;main.c: 126: T1CON=0x00;
  7344  00105C  0101               	movlb	1	; () banked
  7345  00105E  6F2A               	movwf	(??_ISR+2+0)&0ffh
  7346  001060  0E00               	movlw	low(0)
  7347  001062  6ECD               	movwf	((c:4045)),c
  7348  001064  0101               	movlb	1	; () banked
  7349  001066  512A               	movf	(??_ISR+2+0)&0ffh,w
  7350                           	line	127
  7351                           ;main.c: 127: if(!(USBInHandle==0?0:((volatile B
                                 DT_ENTRY*)USBInHandle)->STAT.UOWN))
  7352  001068  C022 FFE9          	movff	(c:34),fsr0l
  7353  00106C  C023 FFEA          	movff	(c:34+1),fsr0h
  7354  001070  34EF               	rlcf	(indf0)&0ffh,w
  7355  001072  36E8               	rlcf	wreg,f
  7356  001074  0B01               	andlw	1
  7357  001076  0101               	movlb	1	; () banked
  7358  001078  6F2A               	movwf	(??_ISR+2+0)&0ffh
  7359  00107A  0101               	movlb	1	; () banked
  7360  00107C  512A               	movf	((??_ISR+2+0))&0ffh,w
  7361  00107E  0101               	movlb	1	; () banked
  7362  001080  0101               	movlb	1	; () banked
  7363  001082  6F28               	movwf	((_ISR$1561))&0ffh
  7364  001084  0101               	movlb	1	; () banked
  7365  001086  6B29               	clrf	((_ISR$1561+1))&0ffh
  7366  001088  5023               	movf	((c:34+1)),c,w
  7367  00108A  1022               	iorwf ((c:34)),c,w
  7368                           
  7369  00108C  A4D8               	btfss	status,2
  7370  00108E  EF4B  F008         	goto	i2u2871
  7371  001092  EF4D  F008         	goto	i2u2870
  7372  001096                     i2u2871:
  7373  001096  EF54  F008         	goto	i2l500000332
  7374  00109A                     i2u2870:
  7375  00109A  0E00               	movlw	low(0)
  7376  00109C  0101               	movlb	1	; () banked
  7377  00109E  0101               	movlb	1	; () banked
  7378  0010A0  6F28               	movwf	((_ISR$1561))&0ffh
  7379  0010A2  0E00               	movlw	high(0)
  7380  0010A4  0101               	movlb	1	; () banked
  7381  0010A6  6F29               	movwf	((_ISR$1561+1))&0ffh
  7382                           	
  7383  0010A8                     i2l500000332:		; BSR set to: ?
  7384                           
  7385  0010A8  0101               	movlb	1	; () banked
  7386  0010AA  0101               	movlb	1	; () banked
  7387  0010AC  5129               	movf	((_ISR$1561+1))&0ffh,w
  7388  0010AE  1128               	iorwf ((_ISR$1561))&0ffh,w
  7389                           
  7390  0010B0  A4D8               	btfss	status,2
  7391  0010B2  EF5D  F008         	goto	i2u2881
  7392  0010B6  EF5F  F008         	goto	i2u2880
  7393  0010BA                     i2u2881:
  7394  0010BA  EF94  F008         	goto	i2l266
  7395  0010BE                     i2u2880:
  7396                           	line	129
  7397                           ;main.c: 128: {
  7398                           ;main.c: 129: ToSendDataBuffer[0]=0xEE;
  7399  0010BE  0101               	movlb	1	; () banked
  7400  0010C0  6F2A               	movwf	(??_ISR+2+0)&0ffh
  7401  0010C2  0EEE               	movlw	low(0EEh)
  7402  0010C4  0104               	movlb	4	; () banked
  7403  0010C6  0104               	movlb	4	; () banked
  7404  0010C8  6FC0               	movwf	((1216))&0ffh
  7405  0010CA  0101               	movlb	1	; () banked
  7406  0010CC  512A               	movf	(??_ISR+2+0)&0ffh,w
  7407                           	line	130
  7408                           ;main.c: 130: ToSendDataBuffer[2]=TMR0L;
  7409  0010CE  CFD6 F4C2          	movff	(c:4054),0+(1216+02h)	;volatile
  7410                           	line	131
  7411                           ;main.c: 131: ToSendDataBuffer[1]=TMR0H;
  7412  0010D2  CFD7 F4C1          	movff	(c:4055),0+(1216+01h)	;volatile
  7413                           	line	132
  7414                           ;main.c: 132: USBInHandle = USBTransferOnePacket
                                 (1,1,(BYTE*)&ToSendDataBuffer[0],64);
  7415  0010D6  0101               	movlb	1	; () banked
  7416  0010D8  6F2A               	movwf	(??_ISR+2+0)&0ffh
  7417  0010DA  0E40               	movlw	low(040h)
  7418  0010DC  0101               	movlb	1	; () banked
  7419  0010DE  0101               	movlb	1	; () banked
  7420  0010E0  6F3F               	movwf	(0+(?i2_USBTransferOnePacket+04h))&0ffh
  7421  0010E2  0101               	movlb	1	; () banked
  7422  0010E4  512A               	movf	(??_ISR+2+0)&0ffh,w
  7423  0010E6  0104               	movlb	4	; () banked
  7424  0010E8  0EC0               	movlw	low(1216)
  7425  0010EA  0101               	movlb	1	; () banked
  7426  0010EC  0101               	movlb	1	; () banked
  7427  0010EE  6F3D               	movwf	(0+(?i2_USBTransferOnePacket+02h))&0ffh
  7428  0010F0  0104               	movlb	4	; () banked
  7429  0010F2  0E04               	movlw	high(1216)
  7430  0010F4  0101               	movlb	1	; () banked
  7431  0010F6  6F3E               	movwf	(1+(?i2_USBTransferOnePacket+02h))&0ffh
  7432  0010F8  0101               	movlb	1	; () banked
  7433  0010FA  6F2B               	movwf	(??_ISR+3+0)&0ffh
  7434  0010FC  0E01               	movlw	low(01h)
  7435  0010FE  0101               	movlb	1	; () banked
  7436  001100  0101               	movlb	1	; () banked
  7437  001102  6F3C               	movwf	(0+(?i2_USBTransferOnePacket+01h))&0ffh
  7438  001104  0101               	movlb	1	; () banked
  7439  001106  512B               	movf	(??_ISR+3+0)&0ffh,w
  7440  001108  0101               	movlb	1	; () banked
  7441  00110A  6F2C               	movwf	(??_ISR+4+0)&0ffh
  7442  00110C  0E01               	movlw	low(01h)
  7443  00110E  0101               	movlb	1	; () banked
  7444  001110  0101               	movlb	1	; () banked
  7445  001112  6F3B               	movwf	((?i2_USBTransferOnePacket))&0ffh
  7446  001114  0101               	movlb	1	; () banked
  7447  001116  512C               	movf	(??_ISR+4+0)&0ffh,w
  7448  001118  ECAE  F00B         	call	i2_USBTransferOnePacket	;wreg free
  7449  00111C  C13B  F022         	movff	0+?i2_USBTransferOnePacket,(c:34)
  7450  001120  C13C  F023         	movff	1+?i2_USBTransferOnePacket,(c:34+1)
  7451                           	line	133
  7452                           ;main.c: 133: PORTD=PORTD+1;
  7453  001124  2883               	incf	((c:3971)),c,w	;volatile
  7454  001126  6E83               	movwf	((c:3971)),c	;volatile
  7455                           	line	134
  7456                           	
  7457  001128                     i2l266:		; BSR set to: ?
  7458                           
  7459                           	line	135
  7460                           ;main.c: 134: }
  7461                           ;main.c: 135: TMR0H=0x00;
  7462  001128  0E00               	movlw	low(0)
  7463  00112A  6ED7               	movwf	((c:4055)),c	;volatile
  7464                           	line	136
  7465                           ;main.c: 136: TMR0L=0x00;
  7466  00112C  0E00               	movlw	low(0)
  7467  00112E  6ED6               	movwf	((c:4054)),c	;volatile
  7468                           	line	137
  7469                           ;main.c: 137: TMR1H=0x0B;
  7470  001130  0E0B               	movlw	low(0Bh)
  7471  001132  6ECF               	movwf	((c:4047)),c	;volatile
  7472                           	line	138
  7473                           ;main.c: 138: TMR1L=0xDB;
  7474  001134  0EDB               	movlw	low(0DBh)
  7475  001136  6ECE               	movwf	((c:4046)),c	;volatile
  7476                           	line	139
  7477                           ;main.c: 139: TMR0IF=0;
  7478  001138  94F2               	bcf	c:(32658/8),(32658)&7	;volatile
  7479                           	line	140
  7480                           ;main.c: 140: TMR1IF=0;
  7481  00113A  909E               	bcf	c:(31984/8),(31984)&7	;volatile
  7482                           	line	141
  7483                           ;main.c: 141: T0CON=0xB8;
  7484  00113C  0101               	movlb	1	; () banked
  7485  00113E  6F2A               	movwf	(??_ISR+2+0)&0ffh
  7486  001140  0EB8               	movlw	low(0B8h)
  7487  001142  6ED5               	movwf	((c:4053)),c
  7488  001144  0101               	movlb	1	; () banked
  7489  001146  512A               	movf	(??_ISR+2+0)&0ffh,w
  7490                           	line	142
  7491                           ;main.c: 142: T1CON=0xB1;
  7492  001148  0101               	movlb	1	; () banked
  7493  00114A  6F2A               	movwf	(??_ISR+2+0)&0ffh
  7494  00114C  0EB1               	movlw	low(0B1h)
  7495  00114E  6ECD               	movwf	((c:4045)),c
  7496  001150  0101               	movlb	1	; () banked
  7497  001152  512A               	movf	(??_ISR+2+0)&0ffh,w
  7498                           	line	143
  7499                           	
  7500  001154                     i2l265:		; BSR set to: ?
  7501                           
  7502                           	line	144
  7503                           ;main.c: 143: }
  7504                           ;main.c: 144: return;
  7505  001154  EFAC  F008         	goto	i2l264
  7506                           	line	145
  7507                           ;main.c: 145: }
  7508  001158                     i2l264:
  7509                           			; BSR set to: ?
  7510                           
  7511  001158  C13A  FFF5         	movff	??_ISR+18,tablat+0
  7512  00115C  C139  FFF8         	movff	??_ISR+17,tblptru+0
  7513  001160  C138  FFF7         	movff	??_ISR+16,tblptrh+0
  7514  001164  C137  FFF6         	movff	??_ISR+15,tblptrl+0
  7515  001168  C136  FFF4         	movff	??_ISR+14,prodh+0
  7516  00116C  C135  FFF3         	movff	??_ISR+13,prodl+0
  7517  001170  C134  FFDA         	movff	??_ISR+12,fsr2h+0
  7518  001174  C133  FFD9         	movff	??_ISR+11,fsr2l+0
  7519  001178  C132  FFE2         	movff	??_ISR+10,fsr1h+0
  7520  00117C  C131  FFE1         	movff	??_ISR+9,fsr1l+0
  7521  001180  C130  FFEA         	movff	??_ISR+8,fsr0h+0
  7522  001184  C12F  FFE9         	movff	??_ISR+7,fsr0l+0
  7523  001188  C12E  FFFB         	movff	??_ISR+6,pclat+1
  7524  00118C  C12D  FFFA         	movff	??_ISR+5,pclat+0
  7525  001190  0011               	retfie f
  7526                           	opt stack 0
  7527                           GLOBAL __end_of_ISR
  7528  001192                     	__end_of_ISR:
  7529                           	FNSIZE	_ISR,19,0
  7530                           ; =============== function _ISR ends ===========
                                 =
  7531                           
  7532                           	signat	_ISR,88
  7533                                   psect   text36,class=CODE,space=0,reloc=
                                 2
  7534                           	global	intlevel2
  7535                           
  7536                           	opt lm
  7537                           	FNBREAK i2_USBTransferOnePacket,intlevel2
  7538                           	global	i2_USBTransferOnePacket
  7539                           	global	i2_USBTransferOnePacket
  7540                           	global	??i2_USBTransferOnePacket
  7541                           	global	?i2_USBTransferOnePacket
  7542                           
  7543                           ; *************** function i2_USBTransferOnePack
                                 et *****************
  7544                           ; Defined at:
  7545                           ;		line 2477 in file "X:\mplab\mini project\new 
                                 untouched\USB Io board fimware source\usb_device
                                 .c"
  7546                           ; Parameters:
  7547                           ;		ep             size:   1offs:   0	type: unsig
                                 ned char 
  7548                           ;		dir            size:   1offs:   1	type: unsig
                                 ned char 
  7549                           ;		data           size:   2offs:   2	type: PTR u
                                 nsigned char ; Largest target is 64
  7550                           ;		 -> ToSendDataBuffer(64), ReceivedDataBuffer(
                                 64), 
  7551                           ;		len            size:   1offs:   4	type: unsig
                                 ned char 
  7552                           ; Auto variables:
  7553                           ;		handle      	       	type: PTR volatile struc
                                 t __BDT; Largest target is 40
  7554                           ;		 -> BDT(32), 
  7555                           ; Return value:
  7556                           ;		type: PTR void 
  7557                           ;		size: 2
  7558                           ; Registers used:
  7559                           ;		wreg, fsr0l, fsr0h, status,2, status,0, prodl
                                 , prodh
  7560                           ; Tracked objects:
  7561                           ;		On entry : 0/0
  7562                           ;		On exit  : 0/0
  7563                           ;		Unchanged: 0/0
  7564                           ; Data sizes:
  7565                           ;		Autos:    2
  7566                           ;		Params:   5
  7567                           ;		Temp:     0
  7568                           ;		Total:    7
  7569                           ; This function calls:
  7570                           ;		Nothing
  7571                           ; This function is called by:
  7572                           ;		i2_ProcessIO
  7573                           ;		_ISR
  7574                           ;		i2_USBCBInitEP
  7575                           ; This function uses a non-reentrant model
  7576                           ; 
  7577                           	file	"X:\mplab\mini project\new untouched\USB I
                                 o board fimware source\usb_device.c"
  7578                           	line	2477
  7579  000000                     	__size_ofi2_USBTransferOnePacket	equ	__end_ofi2
                                 _USBTransferOnePacket-i2_USBTransferOnePacket
  7580                           ;usb_device.c: 2476: void* USBTransferOnePacket(
                                 BYTE ep,BYTE dir,BYTE* data,BYTE len)
  7581                           ;usb_device.c: 2477: {
  7582                           	
  7583  00175C                     i2_USBTransferOnePacket:		; BSR set to: ?
  7584                           
  7585                           	opt stack 30
  7586                           	line	2481
  7587  00175C  0101               	movlb	1	; () banked
  7588  00175E  0101               	movlb	1	; () banked
  7589  001760  513C               	movf	((i2USBTransferOnePacket@dir))&0ffh,w
  7590  001762  B4D8               	btfsc	status,2
  7591  001764  EFB6  F00B         	goto	i2u2841
  7592  001768  EFB8  F00B         	goto	i2u2840
  7593  00176C                     i2u2841:
  7594  00176C  EFCA  F00B         	goto	i2l676
  7595  001770                     i2u2840:
  7596                           	line	2484
  7597  001770  0101               	movlb	1	; () banked
  7598  001772  0101               	movlb	1	; () banked
  7599  001774  513B               	movf	((i2USBTransferOnePacket@ep))&0ffh,w
  7600  001776  0D02               	mullw	02h
  7601  001778  0E0F               	movlw	low((c:15))
  7602  00177A  24F3               	addwf	(prodl),c,w
  7603  00177C  6EE9               	movwf	c:fsr0l
  7604  00177E  6AEA               	clrf	1+c:fsr0l
  7605  001780  0E00               	movlw	high((c:15))
  7606  001782  22EA               	addwfc	1+c:fsr0l
  7607  001784  0101               	movlb	1	; () banked
  7608  001786  CFEE F140          	movff	postinc0,(i2USBTransferOnePacket@handle)
  7609  00178A  0101               	movlb	1	; () banked
  7610  00178C  CFED F141          	movff	postdec0,(i2USBTransferOnePacket@handle+1
                                 )
  7611                           	line	2485
  7612  001790  EFDA  F00B         	goto	i2l677
  7613                           	line	2486
  7614                           	
  7615  001794                     i2l676:		; BSR set to: ?
  7616                           
  7617                           	line	2489
  7618  001794  0101               	movlb	1	; () banked
  7619  001796  0101               	movlb	1	; () banked
  7620  001798  513B               	movf	((i2USBTransferOnePacket@ep))&0ffh,w
  7621  00179A  0D02               	mullw	02h
  7622  00179C  0E17               	movlw	low((c:23))
  7623  00179E  24F3               	addwf	(prodl),c,w
  7624  0017A0  6EE9               	movwf	c:fsr0l
  7625  0017A2  6AEA               	clrf	1+c:fsr0l
  7626  0017A4  0E00               	movlw	high((c:23))
  7627  0017A6  22EA               	addwfc	1+c:fsr0l
  7628  0017A8  0101               	movlb	1	; () banked
  7629  0017AA  CFEE F140          	movff	postinc0,(i2USBTransferOnePacket@handle)
  7630  0017AE  0101               	movlb	1	; () banked
  7631  0017B0  CFED F141          	movff	postdec0,(i2USBTransferOnePacket@handle+1
                                 )
  7632                           	line	2490
  7633                           	
  7634  0017B4                     i2l677:		; BSR set to: ?
  7635                           
  7636                           	line	2503
  7637  0017B4  0E02               	movlw	low(02h)
  7638  0017B6  0101               	movlb	1	; () banked
  7639  0017B8  0101               	movlb	1	; () banked
  7640  0017BA  2540               	addwf	((i2USBTransferOnePacket@handle))&0ffh,w
  7641  0017BC  6EE9               	movwf	c:fsr0l
  7642  0017BE  0E00               	movlw	high(02h)
  7643  0017C0  0101               	movlb	1	; () banked
  7644  0017C2  0101               	movlb	1	; () banked
  7645  0017C4  2141               	addwfc	((i2USBTransferOnePacket@handle+1))&0ffh
                                 ,w
  7646  0017C6  6EEA               	movwf	1+c:fsr0l
  7647  0017C8  0101               	movlb	1	; () banked
  7648  0017CA  C13D  FFEE         	movff	(i2USBTransferOnePacket@data),postinc0	;v
                                 olatile
  7649  0017CE  0101               	movlb	1	; () banked
  7650  0017D0  C13E  FFED         	movff	(i2USBTransferOnePacket@data+1),postdec0	
                                 ;volatile
  7651                           	line	2504
  7652  0017D4  0E01               	movlw	low(01h)
  7653  0017D6  0101               	movlb	1	; () banked
  7654  0017D8  0101               	movlb	1	; () banked
  7655  0017DA  2540               	addwf	((i2USBTransferOnePacket@handle))&0ffh,w
  7656  0017DC  6EE9               	movwf	c:fsr0l
  7657  0017DE  0E00               	movlw	high(01h)
  7658  0017E0  0101               	movlb	1	; () banked
  7659  0017E2  0101               	movlb	1	; () banked
  7660  0017E4  2141               	addwfc	((i2USBTransferOnePacket@handle+1))&0ffh
                                 ,w
  7661  0017E6  6EEA               	movwf	1+c:fsr0l
  7662  0017E8  0101               	movlb	1	; () banked
  7663  0017EA  C13F  FFEF         	movff	(i2USBTransferOnePacket@len),indf0
  7664                           
  7665                           	line	2505
  7666  0017EE  C140  FFE9         	movff	(i2USBTransferOnePacket@handle),fsr0l
  7667  0017F2  C141  FFEA         	movff	(i2USBTransferOnePacket@handle+1),fsr0h
  7668  0017F6  0E40               	movlw	040h
  7669  0017F8  16EF               	andwf	indf0
  7670                           	line	2506
  7671  0017FA  C140  FFE9         	movff	(i2USBTransferOnePacket@handle),fsr0l
  7672  0017FE  C141  FFEA         	movff	(i2USBTransferOnePacket@handle+1),fsr0h
  7673  001802  0E88               	movlw	088h
  7674  001804  12EF               	iorwf	indf0
  7675                           	line	2509
  7676  001806  0101               	movlb	1	; () banked
  7677  001808  0101               	movlb	1	; () banked
  7678  00180A  513C               	movf	((i2USBTransferOnePacket@dir))&0ffh,w
  7679  00180C  B4D8               	btfsc	status,2
  7680  00180E  EF0B  F00C         	goto	i2u2851
  7681  001812  EF0D  F00C         	goto	i2u2850
  7682  001816                     i2u2851:
  7683  001816  EF1B  F00C         	goto	i2l678
  7684  00181A                     i2u2850:
  7685                           	line	2512
  7686  00181A  0101               	movlb	1	; () banked
  7687  00181C  0101               	movlb	1	; () banked
  7688  00181E  513B               	movf	((i2USBTransferOnePacket@ep))&0ffh,w
  7689  001820  0D02               	mullw	02h
  7690  001822  0E0F               	movlw	low((c:15))
  7691  001824  24F3               	addwf	(prodl),c,w
  7692  001826  6EE9               	movwf	c:fsr0l
  7693  001828  6AEA               	clrf	1+c:fsr0l
  7694  00182A  0E00               	movlw	high((c:15))
  7695  00182C  22EA               	addwfc	1+c:fsr0l
  7696  00182E  0E04               	movlw	04h
  7697  001830  1AEF               	xorwf	indf0
  7698                           	line	2513
  7699  001832  EF27  F00C         	goto	i2l679
  7700                           	line	2514
  7701                           	
  7702  001836                     i2l678:		; BSR set to: ?
  7703                           
  7704                           	line	2517
  7705  001836  0101               	movlb	1	; () banked
  7706  001838  0101               	movlb	1	; () banked
  7707  00183A  513B               	movf	((i2USBTransferOnePacket@ep))&0ffh,w
  7708  00183C  0D02               	mullw	02h
  7709  00183E  0E17               	movlw	low((c:23))
  7710  001840  24F3               	addwf	(prodl),c,w
  7711  001842  6EE9               	movwf	c:fsr0l
  7712  001844  6AEA               	clrf	1+c:fsr0l
  7713  001846  0E00               	movlw	high((c:23))
  7714  001848  22EA               	addwfc	1+c:fsr0l
  7715  00184A  0E04               	movlw	04h
  7716  00184C  1AEF               	xorwf	indf0
  7717                           	line	2518
  7718                           	
  7719  00184E                     i2l679:		; BSR set to: ?
  7720                           
  7721                           	line	2519
  7722  00184E  C140  F13B         	movff	(i2USBTransferOnePacket@handle),(?i2_USBT
                                 ransferOnePacket)
  7723  001852  C141  F13C         	movff	(i2USBTransferOnePacket@handle+1),(?i2_US
                                 BTransferOnePacket+1)
  7724  001856  EF2D  F00C         	goto	i2l675
  7725                           	line	2520
  7726  00185A                     i2l675:
  7727                           			; BSR set to: ?
  7728                           
  7729  00185A  0012               	return
  7730                           	opt stack 0
  7731                           GLOBAL __end_ofi2_USBTransferOnePacket
  7732  00185C                     	__end_ofi2_USBTransferOnePacket:
  7733                           	FNSIZE	i2_USBTransferOnePacket,2,5
  7734                           ; =============== function i2_USBTransferOnePack
                                 et ends ============
  7735                           
  7736                           	signat	i2_USBTransferOnePacket,16506
  7737                           	FNCALL	_main,_InitialiseSystem
  7738                           	FNCALL	_main,_USBDeviceTasks
  7739                           	FNCALL	_main,_ProcessIO
  7740                           	FNCALL	_USBDeviceTasks,_USBWakeFromSuspend
  7741                           	FNCALL	_USBDeviceTasks,_USBDeviceInit
  7742                           	FNCALL	_USBDeviceTasks,_USBSuspend
  7743                           	FNCALL	_USBDeviceTasks,_USER_USB_CALLBACK_EVENT
                                 _HANDLER
  7744                           	FNCALL	_USBDeviceTasks,_USBStallHandler
  7745                           	FNCALL	_USBDeviceTasks,_USBCtrlEPService
  7746                           	FNCALL	_ProcessIO,_USBTransferOnePacket
  7747                           	FNCALL	_InitialiseSystem,_USBDeviceInit
  7748                           	FNCALL	_USBSuspend,_USER_USB_CALLBACK_EVENT_HAN
                                 DLER
  7749                           	FNCALL	_USBCtrlEPService,_USBCtrlTrfSetupHandle
                                 r
  7750                           	FNCALL	_USBCtrlEPService,_USBCtrlTrfOutHandler
  7751                           	FNCALL	_USBCtrlEPService,_USBCtrlTrfInHandler
  7752                           	FNCALL	_USBDeviceInit,_memset
  7753                           	FNCALL	_USBWakeFromSuspend,_USER_USB_CALLBACK_E
                                 VENT_HANDLER
  7754                           	FNCALL	_USBCtrlTrfOutHandler,_USBCtrlTrfRxServi
                                 ce
  7755                           	FNCALL	_USBCtrlTrfOutHandler,_USBPrepareForNext
                                 SetupTrf
  7756                           	FNCALL	_USBCtrlTrfSetupHandler,_USBCheckStdRequ
                                 est
  7757                           	FNCALL	_USBCtrlTrfSetupHandler,_USER_USB_CALLBA
                                 CK_EVENT_HANDLER
  7758                           	FNCALL	_USBCtrlTrfSetupHandler,_USBCtrlEPServic
                                 eComplete
  7759                           	FNCALL	_USBCtrlTrfInHandler,_USBCtrlTrfTxServic
                                 e
  7760                           	FNCALL	_USBCtrlTrfInHandler,_USBPrepareForNextS
                                 etupTrf
  7761                           	FNCALL	_USBCheckStdRequest,_USBStdGetDscHandler
  7762                           	FNCALL	_USBCheckStdRequest,_USBStdSetCfgHandler
  7763                           	FNCALL	_USBCheckStdRequest,_USBStdGetStatusHand
                                 ler
  7764                           	FNCALL	_USBCheckStdRequest,_USBStdFeatureReqHan
                                 dler
  7765                           	FNCALL	_USBCheckStdRequest,_USER_USB_CALLBACK_E
                                 VENT_HANDLER
  7766                           	FNCALL	_USBCtrlEPServiceComplete,_USBCtrlTrfTxS
                                 ervice
  7767                           	FNCALL	_USBStdSetCfgHandler,_memset
  7768                           	FNCALL	_USBStdSetCfgHandler,_USER_USB_CALLBACK_
                                 EVENT_HANDLER
  7769                           	FNCALL	_USER_USB_CALLBACK_EVENT_HANDLER,_USBCBI
                                 nitEP
  7770                           	FNCALL	_USER_USB_CALLBACK_EVENT_HANDLER,_USBCBS
                                 tdSetDscHandler
  7771                           	FNCALL	_USER_USB_CALLBACK_EVENT_HANDLER,_USBCBC
                                 heckOtherReq
  7772                           	FNCALL	_USER_USB_CALLBACK_EVENT_HANDLER,_USBCB_
                                 SOF_Handler
  7773                           	FNCALL	_USER_USB_CALLBACK_EVENT_HANDLER,_USBCBS
                                 uspend
  7774                           	FNCALL	_USER_USB_CALLBACK_EVENT_HANDLER,_USBCBW
                                 akeFromSuspend
  7775                           	FNCALL	_USER_USB_CALLBACK_EVENT_HANDLER,_USBCBE
                                 rrorHandler
  7776                           	FNCALL	_USBCBCheckOtherReq,_USBCheckHIDRequest
  7777                           	FNCALL	_USBCBInitEP,_USBEnableEndpoint
  7778                           	FNCALL	_USBCBInitEP,_USBTransferOnePacket
  7779                           	FNCALL	_USBEnableEndpoint,_USBConfigureEndpoint
  7780                           	FNCALL	_USBConfigureEndpoint,___lwdiv
  7781                           	FNROOT	_main
  7782                           	FNCALL	_ISR,i2_USBTransferOnePacket
  7783                           	FNCALL	intlevel2,_ISR
  7784                           	global	intlevel2
  7785                           	FNROOT	intlevel2
  7786                           	global	_blinkStatusValid
  7787                           	global	_blinkStatusValid
  7788                                   psect   text37,class=CODE,space=0,reloc=
                                 2
  7789  000000                     _blinkStatusValid  equ     50
  7790                           
  7791                           	opt lm
  7792                           
  7793                           	DABS	1,50,1	;_blinkStatusValid
  7794                                   psect   idata,class=CODE,space=0
  7795                           	file	"X:\mplab\mini project\new untouched\USB I
                                 o board fimware source\genericHID.h"
  7796                           	line	11
  7797                           
  7798                           ;initializer for _blinkStatusValid
  7799  0004C4  01                 	db	low(01h)
  7800                                   psect   smallconst,class=SMALLCONST,spac
                                 e=0,reloc=2
  7801  000400  00                 	db	0	;reserve
  7802                           	global	_sd001
  7803                           	file	"X:\mplab\mini project\new untouched\USB I
                                 o board fimware source\usb_descriptors.c"
  7804                           	line	236
  7805  000401                     _sd001:
  7806  000401  34                 	db	low(034h)
  7807  000402  03                 	db	low(03h)
  7808  000403  004D               	dw	(04Dh)&0ffffh
  7809  000405  0069               	dw	(069h)&0ffffh
  7810  000407  0063               	dw	(063h)&0ffffh
  7811  000409  0072               	dw	(072h)&0ffffh
  7812  00040B  006F               	dw	(06Fh)&0ffffh
  7813  00040D  0063               	dw	(063h)&0ffffh
  7814  00040F  0068               	dw	(068h)&0ffffh
  7815  000411  0069               	dw	(069h)&0ffffh
  7816  000413  0070               	dw	(070h)&0ffffh
  7817  000415  0020               	dw	(020h)&0ffffh
  7818  000417  0054               	dw	(054h)&0ffffh
  7819  000419  0065               	dw	(065h)&0ffffh
  7820  00041B  0063               	dw	(063h)&0ffffh
  7821  00041D  0068               	dw	(068h)&0ffffh
  7822  00041F  006E               	dw	(06Eh)&0ffffh
  7823  000421  006F               	dw	(06Fh)&0ffffh
  7824  000423  006C               	dw	(06Ch)&0ffffh
  7825  000425  006F               	dw	(06Fh)&0ffffh
  7826  000427  0067               	dw	(067h)&0ffffh
  7827  000429  0079               	dw	(079h)&0ffffh
  7828  00042B  0020               	dw	(020h)&0ffffh
  7829  00042D  0049               	dw	(049h)&0ffffh
  7830  00042F  006E               	dw	(06Eh)&0ffffh
  7831  000431  0063               	dw	(063h)&0ffffh
  7832  000433  002E               	dw	(02Eh)&0ffffh
  7833                           	global	_sd002
  7834                           	line	243
  7835  000435                     _sd002:
  7836  000435  2A                 	db	low(02Ah)
  7837  000436  03                 	db	low(03h)
  7838  000437  004D               	dw	(04Dh)&0ffffh
  7839  000439  0049               	dw	(049h)&0ffffh
  7840  00043B  0043               	dw	(043h)&0ffffh
  7841  00043D  0052               	dw	(052h)&0ffffh
  7842  00043F  004F               	dw	(04Fh)&0ffffh
  7843  000441  0045               	dw	(045h)&0ffffh
  7844  000443  004D               	dw	(04Dh)&0ffffh
  7845  000445  0042               	dw	(042h)&0ffffh
  7846  000447  0045               	dw	(045h)&0ffffh
  7847  000449  0044               	dw	(044h)&0ffffh
  7848  00044B  0045               	dw	(045h)&0ffffh
  7849  00044D  0044               	dw	(044h)&0ffffh
  7850  00044F  0020               	dw	(020h)&0ffffh
  7851  000451  0055               	dw	(055h)&0ffffh
  7852  000453  0053               	dw	(053h)&0ffffh
  7853  000455  0042               	dw	(042h)&0ffffh
  7854  000457  0020               	dw	(020h)&0ffffh
  7855  000459  0049               	dw	(049h)&0ffffh
  7856  00045B  004F               	dw	(04Fh)&0ffffh
  7857  00045D  0020               	dw	(020h)&0ffffh
  7858                           	global	_configDescriptor1
  7859                           	file	"X:\mplab\mini project\new untouched\USB I
                                 o board fimware source\usb_function_hid.h"
  7860                           	line	332
  7861  00045F                     _configDescriptor1:
  7862  00045F  09                 	db	low(09h)
  7863  000460  02                 	db	low(02h)
  7864  000461  29                 	db	low(029h)
  7865  000462  00                 	db	low(0)
  7866  000463  01                 	db	low(01h)
  7867  000464  01                 	db	low(01h)
  7868  000465  00                 	db	low(0)
  7869  000466  C0                 	db	low(0C0h)
  7870  000467  32                 	db	low(032h)
  7871  000468  09                 	db	low(09h)
  7872  000469  04                 	db	low(04h)
  7873  00046A  00                 	db	low(0)
  7874  00046B  00                 	db	low(0)
  7875  00046C  02                 	db	low(02h)
  7876  00046D  03                 	db	low(03h)
  7877  00046E  00                 	db	low(0)
  7878  00046F  00                 	db	low(0)
  7879  000470  00                 	db	low(0)
  7880  000471  09                 	db	low(09h)
  7881  000472  21                 	db	low(021h)
  7882  000473  11                 	db	low(011h)
  7883  000474  01                 	db	low(01h)
  7884  000475  00                 	db	low(0)
  7885  000476  01                 	db	low(01h)
  7886  000477  22                 	db	low(022h)
  7887  000478  1D                 	db	low(01Dh)
  7888  000479  00                 	db	low(0)
  7889  00047A  07                 	db	low(07h)
  7890  00047B  05                 	db	low(05h)
  7891  00047C  81                 	db	low(081h)
  7892  00047D  03                 	db	low(03h)
  7893  00047E  40                 	db	low(040h)
  7894  00047F  00                 	db	low(0)
  7895  000480  01                 	db	low(01h)
  7896  000481  07                 	db	low(07h)
  7897  000482  05                 	db	low(05h)
  7898  000483  01                 	db	low(01h)
  7899  000484  03                 	db	low(03h)
  7900  000485  40                 	db	low(040h)
  7901  000486  00                 	db	low(0)
  7902  000487  01                 	db	low(01h)
  7903                           	global	_hid_rpt01
  7904                           	line	336
  7905  000488                     _hid_rpt01:
  7906  000488  06                 	db	low(06h)
  7907  000489  00                 	db	low(0)
  7908  00048A  FF                 	db	low(0FFh)
  7909  00048B  09                 	db	low(09h)
  7910  00048C  01                 	db	low(01h)
  7911  00048D  A1                 	db	low(0A1h)
  7912  00048E  01                 	db	low(01h)
  7913  00048F  19                 	db	low(019h)
  7914  000490  01                 	db	low(01h)
  7915  000491  29                 	db	low(029h)
  7916  000492  40                 	db	low(040h)
  7917  000493  15                 	db	low(015h)
  7918  000494  00                 	db	low(0)
  7919  000495  26                 	db	low(026h)
  7920  000496  FF                 	db	low(0FFh)
  7921  000497  00                 	db	low(0)
  7922  000498  75                 	db	low(075h)
  7923  000499  08                 	db	low(08h)
  7924  00049A  95                 	db	low(095h)
  7925  00049B  40                 	db	low(040h)
  7926  00049C  81                 	db	low(081h)
  7927  00049D  00                 	db	low(0)
  7928  00049E  19                 	db	low(019h)
  7929  00049F  01                 	db	low(01h)
  7930  0004A0  29                 	db	low(029h)
  7931  0004A1  40                 	db	low(040h)
  7932  0004A2  91                 	db	low(091h)
  7933  0004A3  00                 	db	low(0)
  7934  0004A4  C0                 	db	low(0C0h)
  7935                           	global	_device_dsc
  7936                           	file	"X:\mplab\mini project\new untouched\USB I
                                 o board fimware source\usb_device.c"
  7937                           	line	540
  7938  0004A5                     _device_dsc:
  7939  0004A5  12                 	db	low(012h)
  7940  0004A6  01                 	db	low(01h)
  7941  0004A7  0200               	dw	(0200h)&0ffffh
  7942  0004A9  00                 	db	low(0)
  7943  0004AA  00                 	db	low(0)
  7944  0004AB  00                 	db	low(0)
  7945  0004AC  08                 	db	low(08h)
  7946  0004AD  04D8               	dw	(04D8h)&0ffffh
  7947  0004AF  0042               	dw	(042h)&0ffffh
  7948  0004B1  0002               	dw	(02h)&0ffffh
  7949  0004B3  01                 	db	low(01h)
  7950  0004B4  02                 	db	low(02h)
  7951  0004B5  00                 	db	low(0)
  7952  0004B6  01                 	db	low(01h)
  7953                           	global	_USB_SD_Ptr
  7954                           	line	550
  7955  0004B7                     _USB_SD_Ptr:
  7956  0004B7  04BD               	dw	((_sd000))&0ffffh
  7957  0004B9  0401               	dw	((_sd001))&0ffffh
  7958  0004BB  0435               	dw	((_sd002))&0ffffh
  7959                           	global	_sd000
  7960                           	file	"X:\mplab\mini project\new untouched\USB I
                                 o board fimware source\usb_descriptors.c"
  7961                           	line	231
  7962  0004BD                     _sd000:
  7963  0004BD  04                 	db	low(04h)
  7964  0004BE  03                 	db	low(03h)
  7965  0004BF  0409               	dw	(0409h)&0ffffh
  7966                           	global	_USB_CD_Ptr
  7967                           	file	"X:\mplab\mini project\new untouched\USB I
                                 o board fimware source\usb_device.c"
  7968                           	line	547
  7969  0004C1                     _USB_CD_Ptr:
  7970  0004C1  045F               	dw	((_configDescriptor1))&0ffffh
  7971                           	global	_sd001
  7972                           	global	_sd002
  7973                           	global	_configDescriptor1
  7974                           	global	_hid_rpt01
  7975                           	global	_device_dsc
  7976                           	global	_USB_SD_Ptr
  7977                           	global	_sd000
  7978                           	global	_USB_CD_Ptr
  7979                           	global	_outPipes
  7980                           	global	_outPipes
  7981  000000                     _outPipes  equ     6
  7982                           
  7983                           	DABS	1,6,9	;_outPipes
  7984                           	global	_inPipes
  7985                           	global	_inPipes
  7986  000000                     _inPipes  equ     0
  7987                           
  7988                           	DABS	1,0,6	;_inPipes
  7989                           	global	_pBDTEntryIn
  7990                           	global	_pBDTEntryIn
  7991  000000                     _pBDTEntryIn  equ     15
  7992                           
  7993                           	DABS	1,15,4	;_pBDTEntryIn
  7994                           	global	_pBDTEntryOut
  7995                           	global	_pBDTEntryOut
  7996  000000                     _pBDTEntryOut  equ     23
  7997                           
  7998                           	DABS	1,23,4	;_pBDTEntryOut
  7999                           	global	_USBInData
  8000                           	global	_USBInData
  8001  000000                     _USBInData  equ     43
  8002                           
  8003                           	DABS	1,43,3	;_USBInData
  8004                           	global	F3125
  8005  000000                     F3125  equ     46
  8006                           
  8007                           	DABS	1,46,2	;F3125
  8008                           	global	_USBInHandle
  8009                           	global	_USBInHandle
  8010  000000                     _USBInHandle  equ     34
  8011                           
  8012                           	DABS	1,34,2	;_USBInHandle
  8013                           	global	_USBInMaxPacketSize
  8014                           	global	_USBInMaxPacketSize
  8015  000000                     _USBInMaxPacketSize  equ     48
  8016                           
  8017                           	DABS	1,48,2	;_USBInMaxPacketSize
  8018                           	global	_USBOutHandle
  8019                           	global	_USBOutHandle
  8020  000000                     _USBOutHandle  equ     32
  8021                           
  8022                           	DABS	1,32,2	;_USBOutHandle
  8023                           	global	_pBDTEntryEP0OutCurrent
  8024                           	global	_pBDTEntryEP0OutCurrent
  8025  000000                     _pBDTEntryEP0OutCurrent  equ     21
  8026                           
  8027                           	DABS	1,21,2	;_pBDTEntryEP0OutCurrent
  8028                           	global	_pBDTEntryEP0OutNext
  8029                           	global	_pBDTEntryEP0OutNext
  8030  000000                     _pBDTEntryEP0OutNext  equ     19
  8031                           
  8032                           	DABS	1,19,2	;_pBDTEntryEP0OutNext
  8033                           	global	_pDst
  8034                           	global	_pDst
  8035  000000                     _pDst  equ     30
  8036                           
  8037                           	DABS	1,30,2	;_pDst
  8038                           	global	_BothEP0OutUOWNsSet
  8039                           	global	_BothEP0OutUOWNsSet
  8040  000000                     _BothEP0OutUOWNsSet  equ     41
  8041                           
  8042                           	DABS	1,41,1	;_BothEP0OutUOWNsSet
  8043                           	global	_RemoteWakeup
  8044                           	global	_RemoteWakeup
  8045  000000                     _RemoteWakeup  equ     42
  8046                           
  8047                           	DABS	1,42,1	;_RemoteWakeup
  8048                           	global	_USBActiveConfiguration
  8049                           	global	_USBActiveConfiguration
  8050  000000                     _USBActiveConfiguration  equ     28
  8051                           
  8052                           	DABS	1,28,1	;_USBActiveConfiguration
  8053                           	global	_USBAlternateInterface
  8054                           	global	_USBAlternateInterface
  8055  000000                     _USBAlternateInterface  equ     36
  8056                           
  8057                           	DABS	1,36,1	;_USBAlternateInterface
  8058                           	global	_USBDeviceState
  8059                           	global	_USBDeviceState
  8060  000000                     _USBDeviceState  equ     29
  8061                           
  8062                           	DABS	1,29,1	;_USBDeviceState
  8063                           	global	_USTATcopy
  8064                           	global	_USTATcopy
  8065  000000                     _USTATcopy  equ     27
  8066                           
  8067                           	DABS	1,27,1	;_USTATcopy
  8068                           	global	_active_protocol
  8069                           	global	_active_protocol
  8070  000000                     _active_protocol  equ     39
  8071                           
  8072                           	DABS	1,39,1	;_active_protocol
  8073                           	global	_controlTransferState
  8074                           	global	_controlTransferState
  8075  000000                     _controlTransferState  equ     38
  8076                           
  8077                           	DABS	1,38,1	;_controlTransferState
  8078                           	global	_idle_rate
  8079                           	global	_idle_rate
  8080  000000                     _idle_rate  equ     40
  8081                           
  8082                           	DABS	1,40,1	;_idle_rate
  8083                           	global	_shortPacketStatus
  8084                           	global	_shortPacketStatus
  8085  000000                     _shortPacketStatus  equ     37
  8086                           
  8087                           	DABS	1,37,1	;_shortPacketStatus
  8088                           	global	__USB_DESCRIPTOR
  8089                           	global	__USB_DESCRIPTOR
  8090  000000                     __USB_DESCRIPTOR  equ     1024
  8091                           	global	_ReceivedDataBuffer
  8092                           	global	_ReceivedDataBuffer
  8093  000000                     _ReceivedDataBuffer  equ     1152
  8094                           	global	_ToSendDataBuffer
  8095                           	global	_ToSendDataBuffer
  8096  000000                     _ToSendDataBuffer  equ     1216
  8097                           	global	_BDT
  8098                           	global	_BDT
  8099  000000                     _BDT  equ     1024
  8100                           	global	__USB_ENDPOINT
  8101                           	global	__USB_ENDPOINT
  8102  000000                     __USB_ENDPOINT  equ     3952
  8103                           	global	_CtrlTrfData
  8104                           	global	_CtrlTrfData
  8105  000000                     _CtrlTrfData  equ     1312
  8106                           	global	_SetupPkt
  8107                           	global	_SetupPkt
  8108  000000                     _SetupPkt  equ     1280
  8109                           	global	_hid_report_in
  8110                           	global	_hid_report_in
  8111  000000                     _hid_report_in  equ     1392
  8112                           	global	_hid_report_out
  8113                           	global	_hid_report_out
  8114  000000                     _hid_report_out  equ     1328
  8115                           	global	_ADCON1
  8116  000000                     _ADCON1	equ	0xFC1
  8117                           	global	_OSCCON
  8118  000000                     _OSCCON	equ	0xFD3
  8119                           	global	_PIR2bits
  8120  000000                     _PIR2bits	equ	0xFA1
  8121                           	global	_PORTB
  8122  000000                     _PORTB	equ	0xF81
  8123                           	global	_PORTD
  8124  000000                     _PORTD	equ	0xF83
  8125                           	global	_PORTE
  8126  000000                     _PORTE	equ	0xF84
  8127                           	global	_T0CON
  8128  000000                     _T0CON	equ	0xFD5
  8129                           	global	_T1CON
  8130  000000                     _T1CON	equ	0xFCD
  8131                           	global	_TMR0H
  8132  000000                     _TMR0H	equ	0xFD7
  8133                           	global	_TMR0L
  8134  000000                     _TMR0L	equ	0xFD6
  8135                           	global	_TMR1H
  8136  000000                     _TMR1H	equ	0xFCF
  8137                           	global	_TMR1L
  8138  000000                     _TMR1L	equ	0xFCE
  8139                           	global	_TRISB
  8140  000000                     _TRISB	equ	0xF93
  8141                           	global	_TRISC
  8142  000000                     _TRISC	equ	0xF94
  8143                           	global	_TRISD
  8144  000000                     _TRISD	equ	0xF95
  8145                           	global	_TRISE
  8146  000000                     _TRISE	equ	0xF96
  8147                           	global	_UADDR
  8148  000000                     _UADDR	equ	0xF6E
  8149                           	global	_UCFG
  8150  000000                     _UCFG	equ	0xF6F
  8151                           	global	_UCON
  8152  000000                     _UCON	equ	0xF6D
  8153                           	global	_UCONbits
  8154  000000                     _UCONbits	equ	0xF6D
  8155                           	global	_UEIE
  8156  000000                     _UEIE	equ	0xF6B
  8157                           	global	_UEIR
  8158  000000                     _UEIR	equ	0xF6A
  8159                           	global	_UEP0
  8160  000000                     _UEP0	equ	0xF70
  8161                           	global	_UEP0bits
  8162  000000                     _UEP0bits	equ	0xF70
  8163                           	global	_UEP1
  8164  000000                     _UEP1	equ	0xF71
  8165                           	global	_UIE
  8166  000000                     _UIE	equ	0xF69
  8167                           	global	_UIEbits
  8168  000000                     _UIEbits	equ	0xF69
  8169                           	global	_UIR
  8170  000000                     _UIR	equ	0xF68
  8171                           	global	_UIRbits
  8172  000000                     _UIRbits	equ	0xF68
  8173                           	global	_USTAT
  8174  000000                     _USTAT	equ	0xF6C
  8175                           	global	_FSEN
  8176  000000                     _FSEN	equ	0x7B7A
  8177                           	global	_GIE
  8178  000000                     _GIE	equ	0x7F97
  8179                           	global	_IPEN
  8180  000000                     _IPEN	equ	0x7E87
  8181                           	global	_PEIE
  8182  000000                     _PEIE	equ	0x7F96
  8183                           	global	_PKTDIS
  8184  000000                     _PKTDIS	equ	0x7B6C
  8185                           	global	_RESUME
  8186  000000                     _RESUME	equ	0x7B6A
  8187                           	global	_SE0
  8188  000000                     _SE0	equ	0x7B6D
  8189                           	global	_SUSPND
  8190  000000                     _SUSPND	equ	0x7B69
  8191                           	global	_TMR0IF
  8192  000000                     _TMR0IF	equ	0x7F92
  8193                           	global	_TMR1IE
  8194  000000                     _TMR1IE	equ	0x7CE8
  8195                           	global	_TMR1IF
  8196  000000                     _TMR1IF	equ	0x7CF0
  8197                           	global	_TMR1IP
  8198  000000                     _TMR1IP	equ	0x7CF8
  8199                           	global	_UPUEN
  8200  000000                     _UPUEN	equ	0x7B7C
  8201                           	global	_USBEN
  8202  000000                     _USBEN	equ	0x7B6B
  8203                           	global	_UTRDIS
  8204  000000                     _UTRDIS	equ	0x7B7B
  8205  0004C3  00                 	db 0	; dummy byte at the end
  8206                           	psect	intsave_regs,class=BIGRAM,space=1
  8207                           	PSECT	param1,class=BANK1,space=1
  8208                           	GLOBAL	__Lparam1
  8209                           	FNCONF	param1,??,?
  8210                           	GLOBAL	__Labsbss0
  8211  000000                     __Labsbss0	EQU	0
  8212                           	GLOBAL	__Habsbss0
  8213  000000                     __Habsbss0	EQU	50
  8214                           	GLOBAL	__Labsbss1
  8215  000000                     __Labsbss1	EQU	1024
  8216                           	GLOBAL	__Habsbss1
  8217  000000                     __Habsbss1	EQU	1288
  8218                           	GLOBAL	__Labsbss2
  8219  000000                     __Labsbss2	EQU	1312
  8220                           	GLOBAL	__Habsbss2
  8221  000000                     __Habsbss2	EQU	1320
  8222                           	GLOBAL	__Labsbss3
  8223  000000                     __Labsbss3	EQU	1328
  8224                           	GLOBAL	__Habsbss3
  8225  000000                     __Habsbss3	EQU	1331
  8226                           	GLOBAL	__Labsbss4
  8227  000000                     __Labsbss4	EQU	1392
  8228                           	GLOBAL	__Habsbss4
  8229  000000                     __Habsbss4	EQU	1395
  8230                           	GLOBAL	__Labsbss5
  8231  000000                     __Labsbss5	EQU	3952
  8232                           	GLOBAL	__Habsbss5
  8233  000000                     __Habsbss5	EQU	3967
  8234                           	GLOBAL	__Ldata0
  8235  000000                     __Ldata0	EQU	50
  8236                           	GLOBAL	__Hdata0
  8237  000000                     __Hdata0	EQU	51
  8238                           GLOBAL	__Lparam, __Hparam
  8239                           GLOBAL	__Lparam1, __Hparam1
  8240  000000                     __Lparam	EQU	__Lparam1
  8241  000000                     __Hparam	EQU	__Hparam1


HI-TECH Software PICC-18 Macro Assembler V9.65 build 7190 
Symbol Table                                           Sat Aug 02 14:17:50 2014

                              _USB_SD_Ptr 04B7  
                           _USBDeviceInit 12D4  
                      _USBCheckHIDRequest 0B7A  
    USER_USB_CALLBACK_EVENT_HANDLER@event 0108  
    USER_USB_CALLBACK_EVENT_HANDLER@pdata 010A  
                                     l251 1FEC  
                                     l260 187E  
                                     l261 1958  
             __end_of_USBStdGetDscHandler 1540  
                                     l510 140A  
                                     l511 1366  
                                     l263 190A  
                                     l600 0A9C  
                                     l512 13AC  
                                     l520 0512  
                                     l248 2272  
                                     l601 0ABC  
                                     l521 0510  
                                     l249 226A  
                                     l602 0AE2  
                                     l610 1432  
                                     l514 13B6  
                                     l530 0686  
                                     l522 0520  
                                     l603 0B78  
                                     l611 1446  
                                     l515 13B4  
                                     l259 1958  
                                     l531 06D4  
                                     l523 056A  
                                     l620 1976  
                                     l604 0B58  
                                     l612 14A8  
                                     l516 13C4  
                                     l540 0784  
                                     l532 06EA  
                                     l524 056A  
                                     l621 198C  
                                     l605 0B78  
                                     l613 1508  
                                     l541 219E  
                                     l533 079E  
                                     l517 07A0  
                                     l525 058C  
                                     l622 1990  
                                     l606 153E  
                                     l614 1514  
                                     l630 0820  
                                     l550 12BA  
                                     l542 219C  
                                     l534 0720  
                                     l526 05A0  
                                     l518 04CA  
                                     l623 1996  
                                     l615 1518  
                                     l607 153E  
                                     l631 0860  
                                     l551 12B2  
                                     l543 219A  
                                     l535 079E  
                                     l527 05F8  
                                     l519 052C  
                                     l616 1A56  
                                     l624 19CE  
                                     l640 0EE6  
                                     l632 09C6  
                                     l560 1E80  
                                     l552 12AA  
                                     l544 2264  
                                     l528 061A  
                                     l625 19EE  
                                     l617 1A2E  
                                     l641 0EE6  
                                     l609 1528  
                                     l633 09C6  
                                     l561 214E  
                                     l545 222E  
                                     l553 1264  
                                     l537 0780  
                                     l529 0666  
                                     l626 1A14  
                                     l618 1A18  
                                     l650 1010  
                                     l642 0EF8  
                                     l634 096A  
                                     l570 1C26  
                                     l562 20F8  
                                     l546 2220  
                                     l554 12AA  
                                     l538 074E  
                                     l627 1A56  
                                     l619 196E  
                                     l643 0FBA  
                                     l635 08B2  
                                     l651 0E8C  
                                     l571 1BF4  
                                     l563 214E  
                                     l547 221E  
                                     l539 077C  
                                     l644 0FA0  
                                     l628 09C6  
                                     l636 09C6  
                                     l660 0E1C  
                                     l652 0D3E  
                                     l580 155C  
                                     l572 1C22  
                                     l564 2142  
                                     l548 222E  
                                     l556 12B6  
                                     l637 1010  
                                     l645 0F64  
                                     l629 0864  
                                     l661 0E8C  
                                     l653 0D50  
                                     l581 165A  
                                     l573 1C16  
                                     l565 214E  
                                     l549 12D2  
                                     l557 12D2  
                                     l670 1F3E  
                                     l646 0FB6  
                                     l638 0EEA  
                                     l662 0E8A  
                                     l654 0D64  
                                     l590 15AE  
                                     l582 1624  
                                     l566 1C2A  
                                     l574 1C22  
                                     l558 12D2  
                                     l671 1F68  
                                     l663 1DB6  
                                     l647 1010  
                                     l639 0ECA  
                                     l655 0DA8  
                                     l591 15D2  
                                     l583 1560  
                                     l575 1C2A  
                                     l567 1BA6  
                                     l559 1EE2  
                                     l664 1D7C  
                                     l648 0FFA  
                                     l592 15EE  
                                     l584 1572  
                                     l576 2068  
                                     l568 1B9A  
                                     l665 1DB6  
                                     l649 0FBE  
                                     l657 0D8E  
                                     l585 157A  
                                     l577 2068  
                                     l569 1BA6  
                                     l666 1B48  
                                     l930 0BB2  
                                     l658 0E20  
                                     l594 1620  
                                     l586 1582  
                                     l578 2066  
                                     l667 1B04  
                                     l931 0C52  
                                     l675 175A  
                                     l595 0B78  
                                     l659 0E10  
                                     l587 159E  
                                     l579 165A  
                                     _BDT 000400  
                                     l668 1B24  
                                     l940 0D06  
                                     l676 1694  
                                     l596 0A26  
                                     l941 0CE4  
                                     l933 0C3C  
                                     l677 16B4  
                                     l669 1F68  
                                     l597 0A1A  
                                     l589 15A6  
                                     l942 0C78  
                                     l934 0BCC  
                                     l678 1736  
                                     l598 0A26  
                                     l935 0BF8  
                                     l679 174E  
                                     l599 0B78  
                                     l944 0C7C  
                                     l936 0BFC  
                                     l928 0D06  
                                     l945 0C9C  
                                     l937 0C28  
                                     l929 0B9A  
                                     l946 0CB0  
                                     l938 0C2C  
                                     l947 0CD0  
                                     l939 0C74  
                                     _GIE 007F97  
                                     _SE0 007B6D  
                                     _ISR 1012  
                                     _UIE 000F69  
                                     _UIR 000F68  
                              _USBSuspend 2230  
                                     tosl 000FFD  
                                     wreg 000FE8  
                          _USBDeviceTasks 04C6  
                     ?_USBCheckHIDRequest 0110  
                          _USBDeviceState 00001D  
                                    F3125 00002E  
                  ??_USBCBWakeFromSuspend 0110  
                   ??_USBCtrlTrfRxService 0106  
                USBEnableEndpoint@options 0114  
                                    ?_ISR 0128  
                                    l1200 20DC  
                                    l1210 1DCC  
                                    l1211 1DD4  
                                    l1212 1DDC  
                                    l1220 21E2  
                                    l1205 1E54  
                                    l1213 1DE4  
                                    l1214 1DEC  
                                    l1206 1E50  
                                    l1215 1DF4  
                                    l1207 1DFE  
                                    l1216 1DFA  
                                    l1208 1DBC  
                                    l1209 1DC4  
                                    l1217 21E6  
                                    l1218 21C2  
                                    l1219 21AC  
                                    l1194 2284  
                                    l1531 1CFA  
                                    l1195 2286  
                                    l1532 1CEE  
                                    l1196 2282  
                                    l1533 1C76  
                                    l1197 2280  
                                    l1534 1C64  
                                    l1198 227E  
                                    l1535 1C88  
                                    l1199 2288  
                                    l1537 1CEE  
                                    l1538 1C88  
                                    l1539 1CD8  
              USBConfigureEndpoint@handle 011C  
                                    u3000 0628  
                                    u3001 0624  
                                    u3010 0636  
                                    u3011 0632  
                                    u3100 0746  
                                    u3020 0674  
                                    u3101 0742  
                                    u3021 0670  
                                    u3110 079E  
                                    u3030 0682  
                                    u3111 079A  
                                    u3031 067E  
                                    u3200 1558  
                                    u3120 222E  
                                    u3040 0694  
                                    u3201 1554  
                                    u3121 222A  
                                    u3041 0690  
                                    u3210 1D6C  
                                    u3130 1E74  
                                    u3050 06A2  
                                    u3211 1D68  
                                    u3131 1E70  
                                    u3051 069E  
                                    _FSEN 007B7A  
                                    u3220 1F26  
                                    u3300 13C4  
                                    u3140 11A4  
                                    u3060 06E4  
                                    u3221 1F22  
                                    u3301 13C0  
                                    u3141 11A0  
                                    u3061 06E0  
                                    u3230 1F50  
                                    u3310 21E2  
                                    u3150 11F0  
                                    u3070 06F8  
                                    u3231 1F4C  
                                    u3311 21DE  
                                    u3151 11EC  
                                    u3071 06F4  
                                    u3240 1AE0  
                                    u3400 20F0  
                                    u3160 1224  
                                    u3320 215E  
                                    u3080 071C  
                                    u3241 1ADC  
                                    u3401 20EC  
                                    u3161 1220  
                                    u3321 215A  
                                    u3081 0718  
                                    u3250 1C50  
                                    u3410 210A  
                                    u3170 1260  
                                    u3330 2176  
                                    u3090 072E  
                                    u3251 1C4C  
                                    u3411 2106  
                                    u3171 125C  
                                    u3331 2172  
                                    u3091 072A  
                                    u3260 1C88  
                                    u3420 2030  
                                    u3180 12AA  
                                    u3340 218E  
                                    u3261 1C84  
                                    u3421 202C  
                                    u3181 12A6  
                                    u3341 218A  
                                    u3270 1CBA  
                                    u3510 07B2  
                                    u3430 2048  
                                    u3350 1B76  
                                    u3190 12CE  
                                    u3271 1CB6  
                                    u3511 07AE  
                                    u3431 2044  
                                    u3351 1B72  
                                    u3191 12CA  
                                    _IPEN 007E87  
                                    u3600 09DC  
                                    u3520 07C0  
                                    u3360 1B8A  
                                    u3280 1362  
                                    u2800 186C  
                                    u3601 09D8  
                                    u3521 07BC  
                                    u3361 1B86  
                                    u3281 135E  
                                    u2801 1868  
                                    u3610 09F2  
                                    u3530 0872  
                                    u3450 0D36  
                                    u3370 1BB6  
                                    u3290 13AC  
                                    u2810 187A  
                                    u3611 09EE  
                                    u3531 086E  
                                    u3451 0D32  
                                    u3371 1BB2  
                                    u3291 13A8  
                                    u2811 1876  
                                    u3700 0EBA  
                                    u3620 0A0A  
                                    u3540 0884  
                                    u3508 0E76  
                                    u3460 0DA8  
                                    u3380 1BE4  
                                    u2820 18B0  
                                    u2900 0520  
                                    u3701 0EB6  
                                    u3621 0A06  
                                    u3541 0880  
                                    u3509 0E8A  
                                    u3461 0DA4  
                                    u3381 1BE0  
                                    u2821 18AC  
                                    u2901 051C  
                                    u3710 0EDA  
                                    u3630 0A38  
                                    u3550 08AA  
                                    u3470 0DBA  
                                    u3390 1C06  
                                    u2830 18D4  
                                    u2910 053C  
                                    u3711 0ED6  
                                    u3631 0A34  
                                    u3551 08A6  
                                    u3471 0DB6  
                                    u3391 1C02  
                                    u2831 18D0  
                                    u2911 0538  
                                    u2840 1670  
                                    u3800 1A3C  
                                    u3720 0F60  
                                    u3640 0A4E  
                                    u3560 1422  
                                    u3480 0E00  
                                    u3448 2052  
                                    u2920 054A  
                                    u2841 166C  
                                    u3801 1A38  
                                    u3721 0F5C  
                                    u3641 0A4A  
                                    u3561 141E  
                                    u3481 0DFC  
                                    u3449 2066  
                                    u2921 0546  
                                    u3810 0B96  
                                    u2850 171A  
                                    u3730 0F8C  
                                    u3650 0A64  
                                    u3570 14A4  
                                    u3490 0E6C  
                                    u2930 0578  
                                    _PEIE 007F96  
                                    u3811 0B92  
                                    u2851 1716  
                                    u3651 0A60  
                                    u3555 089C  
                                    u3491 0E68  
                                    u2931 0574  
                                    u3820 0BAE  
                                    u3740 0FB6  
                                    u3660 0A78  
                                    u3580 14BC  
                                    u2940 0586  
                                    u3821 0BAA  
                                    u3741 0FB2  
                                    u3661 0A74  
                                    u3581 14B8  
                                    u2941 0582  
                                    u3830 0BC8  
                                    u3750 0FE6  
                                    u3670 0AD2  
                                    u3590 14F8  
                                    u2950 059A  
                                    u3831 0BC4  
                                    u3671 0ACE  
                                    u2951 0596  
                                    u3840 0BDC  
                                    u3760 1010  
                                    u3680 0B34  
                                    u2960 05AE  
                                    u3841 0BD8  
                                    u3761 100C  
                                    u3737 0F82  
                                    u3681 0B30  
                                    u3577 1494  
                                    u2961 05AA  
                                    u3850 0C0C  
                                    u3770 1986  
                                    u3690 0EA4  
                                    u2970 05BC  
                                    u2890 04D8  
                                    u3851 0C08  
                                    u3771 1982  
                                    u3691 0EA0  
                                    u2971 05B8  
                                    u2891 04D4  
                                    u3860 0C70  
                                    u3780 19AA  
                                    u2980 0606  
                                    u3861 0C6C  
                                    u3781 19A6  
                                    u3757 0FDC  
                                    u3597 14F2  
                                    u2981 0602  
                                    u3790 1A0C  
                                    u2990 0614  
                                    u3791 1A08  
                                    u2991 0610  
                   ??_USBCtrlTrfTxService 0107  
                                    _UCFG 000F6F  
                                    _UEP0 000F70  
                                    _UEP1 000F71  
                                    _UEIE 000F6B  
                                    _UEIR 000F6A  
                                    _UCON 000F6D  
                                    _pDst 00001E  
                                    _main 2266  
                ??i2_USBTransferOnePacket 0140  
                                    fsr0h 000FEA  
                                    fsr1h 000FE2  
                                    indf0 000FEF  
                                    fsr0l 000FE9  
                                    fsr2h 000FDA  
                                    indf1 000FE7  
                                    fsr1l 000FE1  
                                    fsr2l 000FD9  
                                    pclat 000FFA  
                                    prodh 000FF4  
                                    prodl 000FF3  
                                    start 0018  
                      _USBCBCheckOtherReq 227A  
                    ??_USBCheckHIDRequest 0110  
              __end_of_USBCheckStdRequest 165C  
                  ??_USBCtrlTrfOutHandler 0105  
               ??_USBStdFeatureReqHandler 0107  
                            _USBOutHandle 000020  
                                   ??_ISR 0128  
                ??_USBStdGetStatusHandler 0107  
                          ?_USBDeviceInit 0102  
                     ?_USBCBCheckOtherReq 0110  
                                   l30016 1E40  
                                   l30017 1E10  
                                   l30018 1E34  
                                   ?_main 0100  
                                   _T0CON 000FD5  
                                   _T1CON 000FCD  
                  __end_of_USBDeviceTasks 07A2  
               ?_USBCtrlEPServiceComplete 0106  
                         __end_of___lwdiv 1CFC  
                                   i2l264 1158  
                                   i2l265 1154  
                                   i2l266 1128  
                                   i2l675 185A  
                                   i2l676 1794  
                                   i2l677 17B4  
                                   i2l678 1836  
                                   i2l679 184E  
                                   _UADDR 000F6E  
                                   _TMR0H 000FD7  
                                   _TMR1H 000FCF  
                                   _TMR0L 000FD6  
                                   _TMR1L 000FCE  
                                   _PORTB 000F81  
                                   _PORTD 000F83  
                                   _PORTE 000F84  
                                   _USBEN 007B6B  
                                   _TRISB 000F93  
                                   _TRISC 000F94  
                                   _TRISD 000F95  
                                   _TRISE 000F96  
                                   _UPUEN 007B7C  
                                   _USTAT 000F6C  
                                   _sd000 04BD  
                                   _sd001 0401  
                                   _sd002 0435  
                    ??_USBCBCheckOtherReq 0110  
                                   pclath 000FFA  
                                   tablat 000FF5  
                                   status 000FD8  
                            __end_of_main 227A  
                                  ??_main 0100  
                           __activetblptr 000002  
                         ?_USBDeviceTasks 0100  
                             ?_USBSuspend 0102  
                                  _ADCON1 000FC1  
                                  i2u2840 1770  
                                  i2u2841 176C  
                                  i2u2850 181A  
                                  i2u2851 1816  
                                  i2u2860 1050  
                                  i2u2861 104C  
                                  i2u2870 109A  
                                  i2u2871 1096  
                                  _OSCCON 000FD3  
                                  i2u2880 10BE  
                                  i2u2881 10BA  
                                  _PKTDIS 007B6C  
                                  _RESUME 007B6A  
                                  _TMR0IF 007F92  
                                  _TMR1IE 007CE8  
                                  _TMR1IF 007CF0  
                                  _TMR1IP 007CF8  
                                  _UTRDIS 007B7B  
                                  _SUSPND 007B69  
                i2USBTransferOnePacket@ep 013B  
                       _shortPacketStatus 000025  
                                  __Ldata 000032  
          USBConfigureEndpoint@workaround 011B  
                         USBDeviceTasks@i 0100  
             USBStdFeatureReqHandler@pUEP 0107  
                USBTransferOnePacket@data 0115  
              USBCtrlTrfInHandler@lastDTS 0105  
                         ??_USBDeviceInit 0102  
                            ?_USBCBInitEP 0110  
                               ??___lwdiv 0124  
                       _USBEnableEndpoint 1EE4  
                                  _memset 21A0  
                      ?_USBEnableEndpoint 0113  
                   _USBCBStdSetDscHandler 2288  
                            __mediumconst 04C4  
                                  tblptrh 000FF7  
                                  tblptrl 000FF6  
                                  tblptru 000FF8  
                     ??_USBEnableEndpoint 0115  
                      _USBInMaxPacketSize 000030  
                             _CtrlTrfData 000520  
                    _controlTransferState 000026  
                              __accesstop 0060  
               __end_of_USBEnableEndpoint 1F6A  
                       _USBCB_SOF_Handler 2282  
                         _active_protocol 000027  
             __end_of_USBCtrlTrfInHandler 1C2C  
                      ?_USBCB_SOF_Handler 0110  
                  i2_USBTransferOnePacket 175C  
                     ??_USBCB_SOF_Handler 0110  
                ??_USBCtrlTrfSetupHandler 0105  
                  _USBStdGetStatusHandler 195A  
                             _pBDTEntryIn 00000F  
                       __end_of_ProcessIO 195A  
        __end_of_USBCtrlEPServiceComplete 09C8  
               __end_of_USBCB_SOF_Handler 2284  
                    USBCtrlTrfRxService@i 0107  
                        _InitialiseSystem 1F6A  
                               l500000331 18BE  
                               l600000330 187A  
                                 ?_memset 0108  
                  ?_USBCBStdSetDscHandler 0110  
                              _device_dsc 04A5  
                        _USBCtrlEPService 1192  
             __end_of_USBCtrlTrfRxService 0E8E  
                      _USBCheckStdRequest 1540  
                       _configDescriptor1 045F  
                         __USB_DESCRIPTOR 000400  
             __end_of_USBCtrlTrfTxService 1012  
                     _USBStdSetCfgHandler 1CFC  
                     ?_USBCheckStdRequest 0106  
                                 _UIEbits 000F69  
                                 _UIRbits 000F68  
                                 __Hdata0 000033  
                                 __Ldata0 000032  
                                 __Hparam 0142  
                    ?_USBStdSetCfgHandler 0107  
                                 __Lparam 0100  
                    ??_USBCheckStdRequest 0106  
                        _ToSendDataBuffer 0004C0  
                        ??_USBDeviceTasks 0100  
                                 ___lwdiv 1C2C  
                       ??_USBStallHandler 0102  
                                 __ramtop 0400  
                                 _inPipes 000000  
                            ??_USBSuspend 0102  
                       _USBCBErrorHandler 2280  
                      ?_USBCBErrorHandler 0110  
                           ?_USBCBSuspend 0110  
                          _ProcessIO$1560 0100  
                     _pBDTEntryEP0OutNext 000013  
                     ??_USBCBErrorHandler 0110  
                                 memset@c 010A  
                                 memset@n 010C  
                                 memset@p 010E  
                           __Lmediumconst 04C4  
                                 int_func 0008  
                ?_USBStdFeatureReqHandler 0107  
              ?_USBPrepareForNextSetupTrf 0107  
                   ??_USBStdSetCfgHandler 0107  
                      __end_of_USBSuspend 2266  
                                 postdec0 000FED  
                                 postdec1 000FE5  
                                 postinc0 000FEE  
                                 postinc1 000FE6  
                _USBCtrlEPServiceComplete 07A2  
                      USBEnableEndpoint@p 0115  
               __end_of_USBCBErrorHandler 2282  
                               _USBInData 00002B  
                          ??_USBCBSuspend 0110  
                      _ReceivedDataBuffer 000480  
                      _BothEP0OutUOWNsSet 000029  
               USBConfigureEndpoint@EPNum 0119  
     USER_USB_CALLBACK_EVENT_HANDLER@size 010C  
                               _USTATcopy 00001B  
            __end_of_USBTransferOnePacket 175C  
       __end_of_USBPrepareForNextSetupTrf 206A  
                  _USBCtrlTrfSetupHandler 1E56  
                 ?i2_USBTransferOnePacket 013B  
                   __end_of_USBDeviceInit 140C  
                          __end_of_memset 21E8  
                 ?_USBStdGetStatusHandler 0107  
                             __end_of_ISR 1192  
           USBCtrlTrfRxService@byteToRead 0106  
                               __Habsbss0 000032  
                               __Habsbss1 000508  
                               __Habsbss2 000528  
                               __Habsbss3 000533  
                               __Habsbss4 000573  
                               __Habsbss5 000F7F  
                __end_of_InitialiseSystem 1FEE  
            __end_of_USBConfigureEndpoint 1B4A  
         __end_of_USBStdFeatureReqHandler 0B7A  
                               __Labsbss0 000000  
                               __Labsbss1 000400  
                               __Labsbss2 000520  
                               __Labsbss3 000530  
                               __Labsbss4 000570  
                               __Labsbss5 000F70  
                __end_of_USBCtrlEPService 12D4  
                          USBDeviceInit@i 0102  
                  _pBDTEntryEP0OutCurrent 000015  
                 USBTransferOnePacket@dir 0114  
                 USBTransferOnePacket@len 0117  
          __end_ofi2_USBTransferOnePacket 185C  
                 ??_USBCBStdSetDscHandler 0110  
                     _USBStdGetDscHandler 140C  
                               _ProcessIO 185C  
                                ??_memset 010E  
              USBPrepareForNextSetupTrf@p 0107  
                  _USBActiveConfiguration 00001C  
          __end_of_USBStdGetStatusHandler 1A58  
                    ?_USBStdGetDscHandler 0107  
              __end_of_USBWakeFromSuspend 2230  
                         _USBStallHandler 2150  
                            _pBDTEntryOut 000017  
                        ___lwdiv@dividend 0120  
                    __end_of_USBCBSuspend 2286  
            __end_of_USBCBWakeFromSuspend 2288  
                              ?_ProcessIO 0100  
                                ?___lwdiv 0120  
                               _hid_rpt01 0488  
                               _idle_rate 000028  
                    _USBTransferOnePacket 165C  
                             __smallconst 0400  
            __end_of_USBCtrlTrfOutHandler 2150  
                   ??_USBStdGetDscHandler 0107  
                        ___lwdiv@quotient 0125  
           USBConfigureEndpoint@direction 011A  
                                _ISR$1561 0128  
              __end_of_USBCheckHIDRequest 0D08  
              ??_USBCtrlEPServiceComplete 0106  
             ??_USBPrepareForNextSetupTrf 0107  
                                _PIR2bits 000FA1  
               USBCtrlEPService@setup_cnt 0102  
                                _UEP0bits 000F70  
                           ??_USBCBInitEP 0110  
                                _UCONbits 000F6D  
                             i2l500000332 10A8  
                    _USBConfigureEndpoint 1A58  
                   ?_USBTransferOnePacket 0113  
                            _RemoteWakeup 00002A  
              __end_of_USBCBCheckOtherReq 2280  
                 __end_of_USBStallHandler 21A0  
             __end_of_USBStdSetCfgHandler 1DB8  
                          _hid_report_out 000530  
                                __Hparam1 0142  
                 ?_USBCtrlTrfSetupHandler 0105  
                 USBStdGetStatusHandler@p 0107  
                                __Lparam1 0100  
                  USBTransferOnePacket@ep 0113  
                            __Lsmallconst 0400  
                                _SetupPkt 000500  
                             ??_ProcessIO 0100  
                   ?_USBConfigureEndpoint 0119  
                                __config1 00F4DB  
                                __config2 00FEDF  
                                __config3 00FDFF  
                                __config4 00FFFB  
                                __config5 00FFFF  
                                __config6 00FFFF  
                                __config7 00FFFF  
                        _blinkStatusValid 000032  
               _USBPrepareForNextSetupTrf 1FEE  
                     __end_of_USBCBInitEP 20DE  
                         ___lwdiv@divisor 0122  
                         ___lwdiv@counter 0124  
                    _USBCBWakeFromSuspend 2286  
                       ?_InitialiseSystem 0100  
                           __USB_ENDPOINT 000F70  
                      ??_InitialiseSystem 0100  
          __end_of_USBCtrlTrfSetupHandler 1EE4  
                       ?_USBCtrlEPService 0102  
                      ??_USBCtrlEPService 0102  
                     _USBCtrlTrfInHandler 1B4A  
                                _outPipes 000006  
                    _USBCtrlTrfOutHandler 20DE  
           __end_of_USBCBStdSetDscHandler 228A  
                  ??_USBTransferOnePacket 0118  
                           _hid_report_in 000570  
                    ?_USBCtrlTrfInHandler 0105  
           USBCtrlTrfTxService@byteToSend 0107  
                                memset@p1 0108  
                            _USBCBSuspend 2284  
                        ?_USBStallHandler 0102  
                USBStdFeatureReqHandler@p 0109  
                   ?_USBCBWakeFromSuspend 0110  
                                intlevel2 228A  
 __end_of_USER_USB_CALLBACK_EVENT_HANDLER 1E56  
       ??_USER_USB_CALLBACK_EVENT_HANDLER 010E  
         _USER_USB_CALLBACK_EVENT_HANDLER 1DB8  
        ?_USER_USB_CALLBACK_EVENT_HANDLER 0108  
            i2USBTransferOnePacket@handle 0140  
              i2USBTransferOnePacket@data 013D  
                  ??_USBConfigureEndpoint 011B  
                   ?_USBCtrlTrfOutHandler 0105  
                     _USBCtrlTrfRxService 0D08  
                             _USBCBInitEP 206A  
                      _USBWakeFromSuspend 21E8  
                 _USBStdFeatureReqHandler 09C8  
                     _USBCtrlTrfTxService 0E8E  
                     ?_USBWakeFromSuspend 0102  
                   ??_USBCtrlTrfInHandler 0105  
                   _USBAlternateInterface 000024  
               i2USBTransferOnePacket@dir 013C  
               i2USBTransferOnePacket@len 013F  
                     USBEnableEndpoint@ep 0113  
                    ?_USBCtrlTrfRxService 0106  
                    ?_USBCtrlTrfTxService 0107  
                    ??_USBWakeFromSuspend 0102  
              USBTransferOnePacket@handle 0118  
                              _USB_CD_Ptr 04C1  
                             _USBInHandle 000022  
